                                                      ; ----------------------------------------------------------------------
                                                      ; M i n i m a l - F O R T H
                                                      ;
                                                      ; A minimal FORTH for the Minimal-CPU.
                                                      ;
                                                      ; Date:         2021-03-24
                                                      ; Version:      0.1
                                                      ; Adaptation:   Nils "slowcorners" Kullberg
                                                      ; License:      MIT Open Source Initiative
                                                      ;
                                                      ;
                                                      ; FIG-FORTH WAS ORIGINALLY DEVELOPED BY:
                                                      ; FORTH INTEREST GROUP / FORTH IMPLEMENTATION TEAM
                                                      ; P.O.BOX 1105
                                                      ; SAN CARLOS, CA. 94701
                                                      ;
                                                      ; THIS COMPILER EXISTS THANKS TO ALL THE WONDERFUL PEOPLE OF THE
                                                      ; FORTH INTEREST GROUP. IT IS THEIR DEDICATION AND GENEROSITY WHICH
                                                      ; STILL TODAY MAKES THESE NEW ADAPTATIONS POSSIBLE.
                                                      ;
                                                      ; MAY THIS COMPILER BE A SMALL TRIBUTE TO ALL THOSE INDIVIDUALS OF THE
                                                      ; FORTH INTEREST GROUP AS WELL AS SLU4 WHOSE COUNTLESS HOURS AND
                                                      ; INGENIOUS DETAILS HAVE MADE THE MINIMAL-CPU COME INTO EXISTENCE.
                                                      ;
                                                      ; NILS "SLOWCORNERS" KULLBERG
                                                      ; LUND, SWEDEN
                                                      ; MARCH 2021, IN THE MIDDLE OF THE COVID-19 PANDEMIC
                                                      ;
                                                      ; ----------------------------------------------------------------------
                                                      
                                                              ORG     0x8000
                                                              
                                                      
                                                      ; INCLUDE         defs.asm
                                                      
                                                      ; ----------------------------------------------------------------------
                                                      ; GLOBAL DEFINES
                                                      ;
                                                      
                                                      CH_BEL      EQU     7
                                                      CH_BSP      EQU     8
                                                      CH_LF       EQU     10
                                                      CH_CR       EQU     13
                                                      CH_ESC      EQU     27
                                                      CH_BL       EQU     32
                                                      CH_DQUOTE   EQU     34
                                                      CH_BSL      EQU     92
                                                      CH_DEL      EQU     127
                                                      
                                                      MAGIC       EQU     0x205C      ; Magic cookie
                                                                                      ; : actually "\ " as an integer
                                                                                      ; : used by COLD and ABORT
                                                      
                                                      ; INCLUDE         boot-table.asm
                                                      
                                                      ; ----------------------------------------------------------------------
                                                      ; BOOT TABLE
                                                      
8000 14 B9 97                                         ORIGIN: JPA     CENT            ;  0: COLD start
8003 00                                                       NOP
8004 14 CB 97                                                 JPA     WENT            ;  4: WARM start
8007 00                                                       NOP
8008 F0 71                                                    DW      29168           ;  8: Processor type "MI8" in radix 36
800A 01 00                                                    DW      1               ; 10: Revision
800C 26 A2                                                    DW      HFORTH          ; 12: Pointer to latest word defined
800E 08 00                                                    DW      CH_BSP          ; 14: Backspace character
8010 89 F6                                                    DW      XUP             ; 16: Pointer to initial user area
8012 B0 F5                                                    DW      XSP             ; 18: Initial data stack pointer
8014 85 F6                                                    DW      XRP             ; 20: Initial return stack pointer
8016 B2 F5                                                    DW      XTIB            ; 22: Pointer to terminal input buffer
8018 1F 00                                                    DW      31              ; 24: Maximum FORTH word name length
801A 00 00                                                    DW      0               ; 26: Initial WARNING mode
801C 38 A2                                                    DW      XDP             ; 28: Initial FENCE
801E 38 A2                                                    DW      XDP             ; 30: Initial HERE
8020 36 A2                                                    DW      XXVOC           ; 32: Pointer to initial VOC-LINK
8022 D9 F6                                                    DW      DSKBF           ; 34: Initial FIRST
8024 E1 FE                                                    DW      ENDBF           ; 36: Initial LIMIT
8026 00 00                                                    DW      0               ; 38: unused
8028 00 00                                                    DW      0               ; 40: unused
                                                      
                                                      ; INCLUDE         helpers.asm
                                                      
                                                      ; ----------------------------------------------------------------------
                                                      ; HELPER FUNCTIONS
                                                      ;
                                                      
                                                      ; ------------------------------
                                                      ;       R1 = (IP)+
                                                      
802A 1D E2 FE                                         _LIT:   LDR     IP
802D 16 EC FE                                                 STA     R1.0
8030 2E E2 FE                                                 INW     IP
8033 1D E2 FE                                                 LDR     IP
8036 16 ED FE                                                 STA     R1.1
8039 2E E2 FE                                                 INW     IP
803C 39                                                       RTS
                                                      
                                                      ; ------------------------------
                                                      ;       IP = IP + (IP)+
                                                      
803D 1D E2 FE                                         _BRAN:  LDR     IP
8040 16 EC FE                                                 STA     R1.0
8043 2E E2 FE                                                 INW     IP
8046 1D E2 FE                                                 LDR     IP
8049 16 ED FE                                                 STA     R1.1
804C 2F E2 FE                                                 DEW     IP
804F 15 EC FE                                                 LDA     R1.0
8052 28 E2 FE                                                 ADB     IP.0
8055 15 ED FE                                                 LDA     R1.1
8058 2A E3 FE                                                 ACB     IP.1
805B 39                                                       RTS
                                                      
                                                      ; ------------------------------
                                                      ;       R1 = (SP) "half function"
                                                      
805C 1D E6 FE                                         _GET1_: LDR     SP
805F 16 EC FE                                                 STA     R1.0
8062 2E E6 FE                                                 INW     SP
8065 1D E6 FE                                                 LDR     SP
8068 16 ED FE                                                 STA     R1.1
806B 39                                                       RTS
                                                      
                                                      ; ------------------------------
                                                      ;       R1 = (SP)
                                                      
806C 38 5C 80                                         _GET1:  JPS     _GET1_
806F 2F E6 FE                                                 DEW     SP
8072 39                                                       RTS
                                                      
                                                      ; ------------------------------
                                                      ;       R1 = (SP)+
                                                      
8073 38 5C 80                                         _POP1:  JPS     _GET1_
8076 2E E6 FE                                                 INW     SP
8079 39                                                       RTS
                                                      
                                                      ; ------------------------------
                                                      ;       R1X = (SP)+
                                                      
807A 1D E6 FE                                         _DPOP1: LDR     SP
807D 16 EE FE                                                 STA     R1.2
8080 2E E6 FE                                                 INW     SP
8083 1D E6 FE                                                 LDR     SP
8086 16 EF FE                                                 STA     R1.3
8089 2E E6 FE                                                 INW     SP
808C 1D E6 FE                                                 LDR     SP
808F 16 EC FE                                                 STA     R1.0
8092 2E E6 FE                                                 INW     SP
8095 1D E6 FE                                                 LDR     SP
8098 16 ED FE                                                 STA     R1.1
809B 2E E6 FE                                                 INW     SP
809E 39                                                       RTS
                                                      
                                                      ; ------------------------------
                                                      ;       R2 = (SP) "half function"
                                                      
809F 1D E6 FE                                         _GET2_: LDR     SP
80A2 16 F0 FE                                                 STA     R2.0
80A5 2E E6 FE                                                 INW     SP
80A8 1D E6 FE                                                 LDR     SP
80AB 16 F1 FE                                                 STA     R2.1
80AE 39                                                       RTS
                                                      
                                                      ; ------------------------------
                                                      ;       R2 = (SP)
                                                      
80AF 38 9F 80                                         _GET2:  JPS     _GET2_
80B2 2F E6 FE                                                 DEW     SP
80B5 39                                                       RTS
                                                      
                                                      ; ------------------------------
                                                      ;       R1 = (SP)+
                                                      
80B6 38 9F 80                                         _POP2:  JPS     _GET2_
80B9 2E E6 FE                                                 INW     SP
80BC 39                                                       RTS
                                                      
                                                      ; ------------------------------
                                                      ;       R2X = (SP)+
                                                      
80BD 1D E6 FE                                         _DPOP2: LDR     SP
80C0 16 F2 FE                                                 STA     R2.2
80C3 2E E6 FE                                                 INW     SP
80C6 1D E6 FE                                                 LDR     SP
80C9 16 F3 FE                                                 STA     R2.3
80CC 2E E6 FE                                                 INW     SP
80CF 1D E6 FE                                                 LDR     SP
80D2 16 F0 FE                                                 STA     R2.0
80D5 2E E6 FE                                                 INW     SP
80D8 1D E6 FE                                                 LDR     SP
80DB 16 F1 FE                                                 STA     R2.1
80DE 2E E6 FE                                                 INW     SP
80E1 39                                                       RTS
                                                      
                                                      ; ------------------------------
                                                      ;       R3 = (SP) "half function"
                                                      
80E2 1D E6 FE                                         _GET3_: LDR     SP
80E5 16 F4 FE                                                 STA     R3.0
80E8 2E E6 FE                                                 INW     SP
80EB 1D E6 FE                                                 LDR     SP
80EE 16 F5 FE                                                 STA     R3.1
80F1 39                                                       RTS
                                                      
                                                      ; ------------------------------
                                                      ;       R3 = (SP)
                                                      
80F2 38 E2 80                                         _GET3:  JPS     _GET3_
80F5 2F E6 FE                                                 DEW     SP
80F8 39                                                       RTS
                                                      
                                                      ; ------------------------------
                                                      ;       R3 = (SP)+
                                                      
80F9 38 E2 80                                         _POP3:  JPS     _GET3_
80FC 2E E6 FE                                                 INW     SP
80FF 39                                                       RTS
                                                      
                                                      ; ------------------------------
                                                      ;       R3 = (SP)+
                                                      ;       R2 = (SP)+
                                                      ;       R1 = (SP)+
                                                      
8100 38 F9 80                                         _POP321: JPS    _POP3
8103 38 B6 80                                         _POP21: JPS     _POP2
8106 38 73 80                                                 JPS     _POP1
8109 39                                                       RTS
                                                      
                                                      ; ------------------------------
                                                      ;       R1 = (RP) "half function"
                                                      
810A 1D E8 FE                                         _RGET1_: LDR    RP
810D 16 EC FE                                                 STA     R1.0
8110 2E E8 FE                                                 INW     RP
8113 1D E8 FE                                                 LDR     RP
8116 16 ED FE                                                 STA     R1.1
8119 39                                                       RTS
                                                      
                                                      ; ------------------------------
                                                      ;       R1 = (RP)
                                                      
811A 38 0A 81                                         _RGET1: JPS     _RGET1_
811D 2F E8 FE                                                 DEW     RP
8120 39                                                       RTS
                                                      
                                                      ; ------------------------------
                                                      ;       R1 = (RP)+
                                                      
8121 38 0A 81                                         _RPOP1: JPS     _RGET1_
8124 2E E8 FE                                                 INW     RP
8127 39                                                       RTS
                                                      
                                                      ; ------------------------------
                                                      ;       R2 = (RP) "half function"
                                                      
8128 1D E8 FE                                         _RGET2_: LDR    RP
812B 16 F0 FE                                                 STA     R2.0
812E 2E E8 FE                                                 INW     RP
8131 1D E8 FE                                                 LDR     RP
8134 16 F1 FE                                                 STA     R2.1
8137 39                                                       RTS
                                                      
                                                      ; ------------------------------
                                                      ;       R2 = (RP)
                                                      
8138 38 28 81                                         _RGET2: JPS     _RGET2_
813B 2F E8 FE                                                 DEW     RP
813E 39                                                       RTS
                                                      
                                                      ; ------------------------------
                                                      ;       R1 = (RP)
                                                      
813F 38 28 81                                         _RPOP2: JPS     _RGET2_
8142 2E E8 FE                                                 INW     RP
8145 39                                                       RTS
                                                      
                                                      ; ------------------------------
                                                      ;       R3 = (RP) "half function"
                                                      
8146 1D E8 FE                                         _RGET3_: LDR    RP
8149 16 F4 FE                                                 STA     R3.0
814C 2E E8 FE                                                 INW     RP
814F 1D E8 FE                                                 LDR     RP
8152 16 F5 FE                                                 STA     R3.1
8155 39                                                       RTS
                                                      
                                                      ; ------------------------------
                                                      ;       R3 = (RP)
                                                      
8156 38 46 81                                         _RGET3: JPS     _RGET3_
8159 2F E8 FE                                                 DEW     RP
815C 39                                                       RTS
                                                      
                                                      ; ------------------------------
                                                      ;       R3 = (RP)
                                                      
815D 38 46 81                                         _RPOP3: JPS     _RGET3_
8160 2E E8 FE                                                 INW     RP
8163 39                                                       RTS
                                                      
                                                      ; ------------------------------
                                                      ;       (SP) = R1 "half function"
                                                      
8164 15 ED FE                                         _PUT1_: LDA     R1.1
8167 1E E6 FE                                                 STR     SP
816A 2F E6 FE                                                 DEW     SP
816D 15 EC FE                                                 LDA     R1.0
8170 1E E6 FE                                                 STR     SP
8173 39                                                       RTS
                                                      
                                                      ; ------------------------------
                                                      ;       (SP) = R1
                                                      
8174 2E E6 FE                                         _PUT1:  INW     SP
8177 38 64 81                                                 JPS     _PUT1_
817A 39                                                       RTS
                                                      
                                                      ; ------------------------------
                                                      ;       -(SP) = R1
                                                      
817B 2F E6 FE                                         _PUSH1: DEW     SP
817E 38 64 81                                                 JPS     _PUT1_
8181 39                                                       RTS
                                                      
                                                      ; ------------------------------
                                                      ;       (SP) = R2 "half function"
                                                      
8182 15 F1 FE                                         _PUT2_: LDA     R2.1
8185 1E E6 FE                                                 STR     SP
8188 2F E6 FE                                                 DEW     SP
818B 15 F0 FE                                                 LDA     R2.0
818E 1E E6 FE                                                 STR     SP
8191 39                                                       RTS
                                                      
                                                      ; ------------------------------
                                                      ;       (SP) = R2
                                                      
8192 2E E6 FE                                         _PUT2:  INW     SP
8195 38 82 81                                                 JPS     _PUT2_
8198 39                                                       RTS
                                                      
                                                      ; ------------------------------
                                                      ;       -(SP) = R2
                                                      
8199 2F E6 FE                                         _PUSH2: DEW     SP
819C 38 82 81                                                 JPS     _PUT2_
819F 39                                                       RTS
                                                      
                                                      ; ------------------------------
                                                      ;       (SP) = R3 "half function"
                                                      
81A0 15 F5 FE                                         _PUT3_: LDA     R3.1
81A3 1E E6 FE                                                 STR     SP
81A6 2F E6 FE                                                 DEW     SP
81A9 15 F4 FE                                                 LDA     R3.0
81AC 1E E6 FE                                                 STR     SP
81AF 39                                                       RTS
                                                      
                                                      ; ------------------------------
                                                      ;       (SP) = R3
                                                      
81B0 2E E6 FE                                         _PUT3:  INW     SP
81B3 38 A0 81                                                 JPS     _PUT3_
81B6 39                                                       RTS
                                                      
                                                      ; ------------------------------
                                                      ;       -(SP) = R3
                                                      
81B7 2F E6 FE                                         _PUSH3: DEW     SP
81BA 38 A0 81                                                 JPS     _PUT3_
81BD 39                                                       RTS
                                                      
                                                      ; ------------------------------
                                                      ;       (RP) = R1 "half function"
                                                      
81BE 15 ED FE                                         _RPUT1_: LDA    R1.1
81C1 1E E8 FE                                                 STR     RP
81C4 2F E8 FE                                                 DEW     RP
81C7 15 EC FE                                                 LDA     R1.0
81CA 1E E8 FE                                                 STR     RP
81CD 39                                                       RTS
                                                      
                                                      ; ------------------------------
                                                      ;       (RP) = R1
                                                      
81CE 2E E8 FE                                         _RPUT1: INW     RP
81D1 38 BE 81                                                 JPS     _RPUT1_
81D4 39                                                       RTS
                                                      
                                                      ; ------------------------------
                                                      ;       -(RP) = R1
                                                      
81D5 2F E8 FE                                         _RPUSH1: DEW    RP
81D8 38 BE 81                                                 JPS     _RPUT1_
81DB 39                                                       RTS
                                                      
                                                      ; ------------------------------
                                                      ;       (RP) = R2 "half function"
                                                      
81DC 15 F1 FE                                         _RPUT2_: LDA    R2.1
81DF 1E E8 FE                                                 STR     RP
81E2 2F E8 FE                                                 DEW     RP
81E5 15 F0 FE                                                 LDA     R2.0
81E8 1E E8 FE                                                 STR     RP
81EB 39                                                       RTS
                                                      
                                                      ; ------------------------------
                                                      ;       (RP) = R2
                                                      
81EC 2E E8 FE                                         _RPUT2: INW     RP
81EF 38 DC 81                                                 JPS     _RPUT2_
81F2 39                                                       RTS
                                                      
                                                      ; ------------------------------
                                                      ;       -(RP) = R2
                                                      
81F3 2F E8 FE                                         _RPUSH2: DEW    RP
81F6 38 DC 81                                                 JPS     _RPUT2_
81F9 39                                                       RTS
                                                      
                                                      ; ------------------------------
                                                      ;       (RP) = R3 "half function"
                                                      
81FA 15 F5 FE                                         _RPUT3_: LDA    R3.1
81FD 1E E8 FE                                                 STR     RP
8200 2F E8 FE                                                 DEW     RP
8203 15 F4 FE                                                 LDA     R3.0
8206 1E E8 FE                                                 STR     RP
8209 39                                                       RTS
                                                      
                                                      ; ------------------------------
                                                      ;       (RP) = R3
                                                      
820A 2E E8 FE                                         _RPUT3: INW     RP
820D 38 FA 81                                                 JPS     _RPUT3_
8210 39                                                       RTS
                                                      
                                                      ; ------------------------------
                                                      ;       -(RP) = R3
                                                      
8211 2F E8 FE                                         _RPUSH3: DEW    RP
8214 38 FA 81                                                 JPS     _RPUT3_
8217 39                                                       RTS
                                                      
                                                      ; ------------------------------
                                                      ;       R1 = R1 + R2
                                                      
8218 15 EC FE                                         _ADD16: LDA     R1.0
821B 17 F0 FE                                                 ADA     R2.0
821E 16 EC FE                                                 STA     R1.0
8221 15 ED FE                                                 LDA     R1.1
8224 1A F1 FE                                                 ACA     R2.1
8227 16 ED FE                                                 STA     R1.1
822A 39                                                       RTS
                                                      
                                                      ; ------------------------------
                                                      ;       R1X = R1X + R2X
                                                      
822B 15 EC FE                                         _ADD32: LDA     R1.0
822E 17 F0 FE                                                 ADA     R2.0
8231 16 EC FE                                                 STA     R1.0
8234 15 ED FE                                                 LDA     R1.1
8237 1A F1 FE                                                 ACA     R2.1
823A 16 ED FE                                                 STA     R1.1
823D 15 EE FE                                                 LDA     R1.2
8240 1A F2 FE                                                 ACA     R2.2
8243 16 EE FE                                                 STA     R1.2
8246 15 EF FE                                                 LDA     R1.3
8249 1A F3 FE                                                 ACA     R2.3
824C 16 EF FE                                                 STA     R1.3
824F 39                                                       RTS
                                                      
                                                      ; ------------------------------
                                                      ;       R1 = (R1)
                                                      
8250 1D EC FE                                         _ATR1:  LDR     R1              ; Get LSB
8253 16 EE FE                                                 STA     R1.2            ; ... Store temp
8256 2E EC FE                                                 INW     R1              ; Bump
8259 1D EC FE                                                 LDR     R1              ; Get MSB
825C 16 EF FE                                                 STA     R1.3            ; ... Store temp
825F 15 EE FE                                                 LDA     R1.2            ; Get temp LSB
8262 16 EC FE                                                 STA     R1.0            ; ... Store
8265 15 EF FE                                                 LDA     R1.3            ; Get temp MSB
8268 16 ED FE                                                 STA     R1.1            ; ... Store
826B 39                                                       RTS                     ; Done
                                                      
                                                      ; ------------------------------
                                                      ;       R1 = (R3)
                                                      
826C 1D F4 FE                                         _LD16:  LDR     R3
826F 16 EC FE                                                 STA     R1.0
8272 2E F4 FE                                                 INW     R3
8275 1D F4 FE                                                 LDR     R3
8278 16 ED FE                                                 STA     R1.1
827B 2F F4 FE                                                 DEW     R3
827E 39                                                       RTS
                                                      
                                                      ; ------------------------------
                                                      ;       (R3) = R1
                                                      
827F 15 EC FE                                         _ST16:  LDA     R1.0
8282 1E F4 FE                                                 STR     R3
8285 2E F4 FE                                                 INW     R3
8288 15 ED FE                                                 LDA     R1.1
828B 1E F4 FE                                                 STR     R3
828E 2F F4 FE                                                 DEW     R3
8291 39                                                       RTS
                                                      
                                                      ; ------------------------------
                                                      ;       R1.0 = R1.0 & R2.0
                                                      
8292 0E 08                                            _AND8:  LDI     8               ; Load bit counter
8294 16 F8 FE                                                 STA     BC              ; :
8297 15 F0 FE                                         _AND81: LDA     R2.0            ; Load second operand
829A 05                                                       LSL                     ; Shift 2b7 into C
829B 16 F0 FE                                                 STA     R2.0            ; Store shifted second operand
829E 15 EC FE                                                 LDA     R1.0            ; Load first operand
82A1 3C AA 82                                                 BCC     _AND82          ; If C is clear: Shift in a zero
                                                              ; 2b7 is set
82A4 11 00                                                    CPI     0               ; Is first operand < 0, i.e. is 1b7 set?
82A6 3F AA 82                                                 BMI     _AND82           ; N is set: 1b7 is set
                                                              ; 1b7 is clear
82A9 03                                                       CLC                     ; 1b7 is clear: Clear C
82AA 06                                               _AND82: ROL                     ; Shift C into result
82AB 16 EC FE                                                 STA     R1.0            ; Store first operand/result
82AE 27 F8 FE                                                 DEB     BC              ; All bits done?
82B1 3A 97 82                                                 BNE     _AND81          ;   NO: Do one more
82B4 39                                                       RTS                     ;   YES: All done
                                                      
                                                      ; ------------------------------
                                                      ;       R1.0 = R1.0 | R2.0
                                                      
82B5 0E 08                                            _OR8:   LDI     8               ; Load bit counter
82B7 16 F8 FE                                                 STA     BC              ; :
82BA 15 F0 FE                                         _OR810: LDA     R2.0            ; Load second operand
82BD 05                                                       LSL                     ; Shift 2b7 into C
82BE 16 F0 FE                                                 STA     R2.0            ; Store shifted second operand
82C1 15 EC FE                                                 LDA     R1.0            ; Load first operand
82C4 3D CD 82                                                 BCS     _OR820          ; If C is set, shift it into result
                                                              ; 2b7 is clear
82C7 11 00                                                    CPI     0               ; Is first operand < 0, i.e. is 1b7 set?
82C9 3F CD 82                                                 BMI     _OR820          ; N is clear: 1b7 is clear
                                                              ; 1b7 is clear
82CC 03                                                       CLC                     ; Neither bit is set: Clear C 
82CD 06                                               _OR820: ROL                     ; Shift C into result
82CE 16 EC FE                                                 STA     R1.0            ; Store first operand/result
82D1 27 F8 FE                                                 DEB     BC              ; All bits done?
82D4 3A BA 82                                                 BNE     _OR810          ;   NO: Do one more
82D7 39                                                       RTS                     ;   YES: All done
                                                      
                                                      ; ------------------------------
                                                      ;       R1.0 = R1.0 ^ R2.0
                                                      
82D8 0E 08                                            _XOR8:  LDI     8               ; Load bit counter
82DA 16 F8 FE                                                 STA     BC              ; :
82DD 15 F0 FE                                         _XOR81: LDA     R2.0            ; Get second operand
82E0 05                                                       LSL                     ; Shift b7 into C
82E1 16 F0 FE                                                 STA     R2.0            ; Store shifted second operand
82E4 15 EC FE                                                 LDA     R1.0            ; Load first operand
82E7 3D F2 82                                                 BCS     _XOR82          ; C is set, check 1b7 for zero
                                                              ; 2b7 is clear
82EA 11 00                                                    CPI     0               ; Is first operand < 0, i.e. is b7 set?
82EC 3F F8 82                                                 BMI     _XOR84          ; 1b7 is set and 2b7 is clear, shift in C which is set
82EF 14 F7 82                                                 JPA     _XOR83          ; 1b7 and 2b7 are both zero, clear C and shift in 
                                                              ; 2b7 is set, check 1b7 for zero
82F2 11 00                                            _XOR82: CPI     0
82F4 3E F8 82                                                 BPL     _XOR84          ; If 1b7 is zero, shift in C which is set
82F7 03                                               _XOR83: CLC                     ; 1b7 and 2b7 are equal, shift in a zero
82F8 06                                               _XOR84: ROL                     ; Shift whatever is in C into result
82F9 16 EC FE                                                 STA     R1.0            ; Store first operand/result
82FC 27 F8 FE                                                 DEB     BC              ; All bits done?
82FF 3A DD 82                                                 BNE     _XOR81          ;   NO: Do one more
8302 39                                                       RTS                     ;   YES: All done
                                                      
                                                      ; ------------------------------
                                                      ;       R1 = ~R1
                                                      
8303 15 EF FE                                         _NOT32: LDA     R1.3            ; Negate MSB
8306 0B                                                       NEG                     ; Two-complement negation
8307 10 01                                                    SBI     1               ; Adjust to bitwise not
8309 16 EF FE                                                 STA     R1.3            ; Store negated MSB
830C 15 EE FE                                                 LDA     R1.2            ; Negate byte2
830F 0B                                                       NEG                     ; Two-complement negation
8310 10 01                                                    SBI     1               ; Adjust to bitwise not
8312 16 EE FE                                                 STA     R1.2            ; Store negated byte2
8315 15 ED FE                                         _NOT16: LDA     R1.1            ; Negate byte1
8318 0B                                                       NEG                     ; Two-complement negation
8319 10 01                                                    SBI     1               ; Adjust to bitwise not
831B 16 ED FE                                                 STA     R1.1            ; Store negated byte1
831E 15 EC FE                                                 LDA     R1.0            ; Negate LSB
8321 0B                                                       NEG                     ; Two-complement negation
8322 10 01                                                    SBI     1               ; Adjust to bitwise not
8324 16 EC FE                                                 STA     R1.0            ; Store negated LSB
8327 39                                                       RTS                     ; Done
                                                      
                                                      ; ------------------------------
                                                      ;       R1 = -R1
                                                      
8328 38 15 83                                         _NEG16: JPS     _NOT16          ; Bitwise NOT R1
832B 15 EC FE                                                 LDA     R1.0            ; Add one to make it 2-complement
832E 0F 01                                                    ADI     1               ; :
8330 16 EC FE                                                 STA     R1.0            ; :
8333 15 ED FE                                                 LDA     R1.1            ; :
8336 12 00                                                    ACI     0               ; :
8338 16 ED FE                                                 STA     R1.1            ; :
833B 39                                                       RTS                     ; Done
                                                      
                                                      ; ------------------------------
                                                      ;       R1X = -R1X
                                                      
833C 38 03 83                                         _NEG32: JPS     _NOT32          ; Bitwise NOT R1X
833F 15 EC FE                                                 LDA     R1.0            ; Add one to make it 2-complement
8342 0F 01                                                    ADI     1               ; :
8344 16 EC FE                                                 STA     R1.0            ; :
8347 15 ED FE                                                 LDA     R1.1            ; :
834A 12 00                                                    ACI     0               ; :
834C 16 ED FE                                                 STA     R1.1            ; :
834F 15 EE FE                                                 LDA     R1.2            ; :
8352 12 00                                                    ACI     0               ; :
8354 16 EE FE                                                 STA     R1.2            ; :
8357 15 EF FE                                                 LDA     R1.3            ; :
835A 12 00                                                    ACI     0               ; :
835C 16 EF FE                                                 STA     R1.3            ; :
835F 39                                                       RTS                     ; Done
                                                      
                                                      ; ------------------------------
                                                      ;       R1 <-> R2
                                                      
8360 38 7B 81                                         _XCH16: JPS     _PUSH1          ; Temp = R1
8363 15 F0 FE                                                 LDA     R2.0            ; R1 = R2
8366 16 EC FE                                                 STA     R1.0            ; :
8369 15 F1 FE                                                 LDA     R2.1            ; :
836C 16 ED FE                                                 STA     R1.1            ; :
836F 38 B6 80                                                 JPS     _POP2           ; R2 = Temp
8372 39                                                       RTS                     ; Done
                                                      
                                                      ; ------------------------------
                                                      ;       _USER
                                                      ; NOTE: Index number in R2
                                                      
8373 15 EA FE                                         _USER:  LDA     UP.0            ; R3 = UP
8376 16 F4 FE                                                 STA     R3.0            ; :
8379 15 EB FE                                                 LDA     UP.1            ; :
837C 16 F5 FE                                                 STA     R3.1            ; :
837F 15 F0 FE                                                 LDA     R2.0            ; Get index number
8382 30 F4 FE                                                 ADW     R3              ; Compute addr
8385 39                                                       RTS                     ; Done
                                                      
                                                      ; ------------------------------
                                                      ;       __PICK
                                                      ; NOTE: Index number on Minimal stack
                                                      
8386 15 E6 FE                                         __PICK: LDA     SP.0            ; R3 = SP
8389 16 F4 FE                                                 STA     R3.0            ; :
838C 15 E7 FE                                                 LDA     SP.1            ; :
838F 16 F5 FE                                                 STA     R3.1            ; :
8392 34 03                                                    LDS     3               ; Get index number
8394 05                                                       LSL                     ; : word index --> byte index
8395 30 F4 FE                                                 ADW     R3              ; Compute addr
8398 38 6C 82                                                 JPS     _LD16           ; Get the n:th word from stack
839B 39                                                       RTS                     ; Done
                                                      
                                                      ; ------------------------------
                                                      ;       _ROLL
                                                      ; NOTE: Index number on Minimal stack
                                                      
839C 34 03                                            __ROLL: LDS     3               ; Get index number
839E 16 F7 FE                                                 STA     R3.3            ; Prepare loop counter
83A1 36                                                       PHS                     ; Push as parameter for _PICK
83A2 38 86 83                                                 JPS     __PICK          ; Pick n:th element in R1
83A5 37                                                       PLS                     ; Cleanup stack
                                                              ; Set up source pointer (R2) for move
83A6 15 F4 FE                                                 LDA     R3.0            ; :
83A9 16 F0 FE                                                 STA     R2.0            ; :
83AC 15 F5 FE                                                 LDA     R3.1            ; :
83AF 16 F1 FE                                                 STA     R2.1            ; :
83B2 2F F0 FE                                                 DEW     R2              ; :
83B5 2F F0 FE                                                 DEW     R2              ; :
                                                              ; All moved already?
83B8 15 F7 FE                                         _ROL10: LDA     R3.3            ; Get loop counter
83BB 11 00                                                    CPI     0               ; Zero?
83BD 3B E2 83                                                 BEQ     _ROL99          ; YES: We are done
                                                              ; Move one word down in the stack
83C0 1D F0 FE                                                 LDR     R2              ; Move word
83C3 1E F4 FE                                                 STR     R3              ; :
83C6 2E F0 FE                                                 INW     R2              ; :
83C9 2E F4 FE                                                 INW     R3              ; :
83CC 1D F0 FE                                                 LDR     R2              ; :
83CF 1E F4 FE                                                 STR     R3              ; :
                                                              ; Bump pointers upwards in the stack
83D2 0E 03                                                    LDI     3               ; :
83D4 31 F0 FE                                                 SBW     R2              ; :
83D7 0E 03                                                    LDI     3               ; :
83D9 31 F4 FE                                                 SBW     R3              ; :
                                                              ; Decrement counter
83DC 27 F7 FE                                                 DEB     R3.3            ; Decrement loop counter
83DF 14 B8 83                                                 JPA     _ROL10          ; Go for another round
                                                              ; All done
83E2 38 74 81                                         _ROL99: JPS     _PUT1           ; Replace top of stack with R1
83E5 39                                                       RTS                     ; :
                                                      
                                                      ; ------------------------------
                                                      ;       _SWAP8
                                                      ; Swaps R1.1 <-> R1.0
                                                      ;       R2.1 <-> R2.0
                                                      
83E6 15 EC FE                                         _SWAP8: LDA     R1.0
83E9 16 F9 FE                                                 STA     TMP
83EC 15 ED FE                                                 LDA     R1.1
83EF 16 EC FE                                                 STA     R1.0
83F2 15 F9 FE                                                 LDA     TMP
83F5 16 ED FE                                                 STA     R1.1
83F8 15 F0 FE                                                 LDA     R2.0
83FB 16 F9 FE                                                 STA     TMP
83FE 15 F1 FE                                                 LDA     R2.1
8401 16 F0 FE                                                 STA     R2.0
8404 15 F9 FE                                                 LDA     TMP
8407 16 F1 FE                                                 STA     R2.1
840A 39                                                       RTS
                                                      
                                                      ; ------------------------------
                                                      ;       R1 = R1 & R2
                                                      
840B 38 92 82                                         _AND16: JPS     _AND8
840E 38 E6 83                                                 JPS     _SWAP8
8411 38 92 82                                                 JPS     _AND8
8414 38 E6 83                                                 JPS     _SWAP8
8417 39                                                       RTS
                                                      
                                                      ; ------------------------------
                                                      ;       R1 = R1 | R2
                                                      
8418 38 B5 82                                         _OR16:  JPS     _OR8
841B 38 E6 83                                                 JPS     _SWAP8
841E 38 B5 82                                                 JPS     _OR8
8421 38 E6 83                                                 JPS     _SWAP8
8424 39                                                       RTS
                                                      
                                                      ; ------------------------------
                                                      ;       R1 = R1 ^ R2
                                                      
8425 38 D8 82                                         _XOR16: JPS     _XOR8
8428 38 E6 83                                                 JPS     _SWAP8
842B 38 D8 82                                                 JPS     _XOR8
842E 38 E6 83                                                 JPS     _SWAP8
8431 39                                                       RTS
                                                      
                                                      ; ------------------------------
                                                      ;       R3X = R1X * R2X
                                                      
8432 0E 10                                            _UMULT: LDI     16              ; Set bit counter
8434 16 F8 FE                                                 STA     BC
8437 0E 00                                                    LDI     0               ; R3X = 0
8439 16 F4 FE                                                 STA     R3.0            ; :
843C 16 F5 FE                                                 STA     R3.1            ; :
843F 16 F6 FE                                                 STA     R3.2            ; :
8442 16 F7 FE                                                 STA     R3.3            ; :
8445 16 EE FE                                                 STA     R1.2            ; R1H = 0
8448 16 EF FE                                                 STA     R1.3            ; :
844B 15 F1 FE                                         _UMU10: LDA     R2.1            ; R2 >> 1
844E 07                                                       LSR                     ; :
844F 16 F1 FE                                                 STA     R2.1            ; :
8452 15 F0 FE                                                 LDA     R2.0            ; :
8455 08                                                       ROR                     ; :
8456 16 F0 FE                                                 STA     R2.0            ; :
8459 3C 80 84                                                 BCC     _UMU20          ; No carry, no add
845C 15 F4 FE                                                 LDA     R3.0            ; R3X = R3X + R1X
845F 17 EC FE                                                 ADA     R1.0            ; :
8462 16 F4 FE                                                 STA     R3.0            ; :
8465 15 F5 FE                                                 LDA     R3.1            ; :
8468 1A ED FE                                                 ACA     R1.1            ; :
846B 16 F5 FE                                                 STA     R3.1            ; :
846E 15 F6 FE                                                 LDA     R3.2            ; :
8471 1A EE FE                                                 ACA     R1.2            ; :
8474 16 F6 FE                                                 STA     R3.2            ; :
8477 15 F7 FE                                                 LDA     R3.3            ; :
847A 1A EF FE                                                 ACA     R1.3            ; :
847D 16 F7 FE                                                 STA     R3.3            ; :
8480 15 EC FE                                         _UMU20: LDA     R1.0            ; R1X << 1
8483 05                                                       LSL                     ; :
8484 16 EC FE                                                 STA     R1.0            ; :
8487 15 ED FE                                                 LDA     R1.1            ; :
848A 06                                                       ROL                     ; :
848B 16 ED FE                                                 STA     R1.1            ; :
848E 15 EE FE                                                 LDA     R1.2            ; :
8491 06                                                       ROL                     ; :
8492 16 EE FE                                                 STA     R1.2            ; :
8495 15 EF FE                                                 LDA     R1.3            ; :
8498 06                                                       ROL                     ; :
8499 16 EF FE                                                 STA     R1.3            ; :
849C 27 F8 FE                                                 DEB     BC              ; Decrement bit counter
849F 3A 4B 84                                                 BNE     _UMU10          ; Not zero, more bits to go
84A2 39                                                       RTS
                                                      
                                                      ; ------------------------------
                                                      ;       R1X / R2L
                                                      ;       R1H: Quotient
                                                      ;       R1L: Remainder
                                                      
84A3 0E 10                                            _UDIV:  LDI     16              ; Set bit counter
84A5 16 F8 FE                                                 STA     BC              ; :
                                                              
84A8 15 EC FE                                         _UDI10: LDA     R1.0            ; R1X = R1X << 1
84AB 05                                                       LSL                     ; :
84AC 16 EC FE                                                 STA     R1.0            ; :
84AF 15 ED FE                                                 LDA     R1.1            ; :
84B2 06                                                       ROL                     ; :
84B3 16 ED FE                                                 STA     R1.1            ; :
84B6 15 EE FE                                                 LDA     R1.2            ; :
84B9 06                                                       ROL                     ; :
84BA 16 EE FE                                                 STA     R1.2            ; :
84BD 15 EF FE                                                 LDA     R1.3            ; :
84C0 06                                                       ROL                     ; :
84C1 16 EF FE                                                 STA     R1.3            ; :
                                                      
84C4 15 EE FE                                                 LDA     R1.2            ; R3H = R1H
84C7 16 F6 FE                                                 STA     R3.2            ; :
84CA 15 EF FE                                                 LDA     R1.3            ; :
84CD 16 F7 FE                                                 STA     R3.3            ; :
                                                              
84D0 15 F6 FE                                                 LDA     R3.2            ; R3H = R3H - R2L
84D3 18 F0 FE                                                 SBA     R2.0            ; :
84D6 16 F6 FE                                                 STA     R3.2            ; :
84D9 15 F7 FE                                                 LDA     R3.3            ; :
84DC 1B F1 FE                                                 SCA     R2.1            ; :
84DF 16 F7 FE                                                 STA     R3.3            ; :
                                                              
84E2 3C F4 84                                                 BCC     _UDI20
                                                              
84E5 15 F6 FE                                                 LDA     R3.2            ; R1H = R3H
84E8 16 EE FE                                                 STA     R1.2            ; :
84EB 15 F7 FE                                                 LDA     R3.3            ; :
84EE 16 EF FE                                                 STA     R1.3            ; :
                                                              
84F1 2E EC FE                                                 INW     R1.0            ; R1L++
                                                              
84F4 27 F8 FE                                         _UDI20: DEB     BC              ; All bits done?
84F7 3A A8 84                                                 BNE     _UDI10          ; NO: Loop again
                                                              
84FA 39                                                       RTS
                                                      ; INCLUDE         debug.asm
                                                      
                                                      ; INCLUDE         inner.asm
                                                      
                                                      ; ----------------------------------------------------------------------
                                                      ; INNER INTERPRETER
                                                      
84FB 2F E6 FE                                         IPUSH:  DEW     SP              ; -(SP) = R1H
84FE 15 EF FE                                                 LDA     R1.3
8501 1E E6 FE                                                 STR     SP
8504 2F E6 FE                                                 DEW     SP
8507 15 EE FE                                                 LDA     R1.2
850A 1E E6 FE                                                 STR     SP
850D 2F E6 FE                                         PUSH:   DEW     SP              ; -(SP) = R1L
8510 15 ED FE                                                 LDA     R1.1
8513 1E E6 FE                                                 STR     SP
8516 2F E6 FE                                                 DEW     SP
8519 15 EC FE                                                 LDA     R1.0
851C 1E E6 FE                                                 STR     SP
851F 1D E2 FE                                         NEXT:   LDR     IP              ; WA = (IP)+
8522 16 E4 FE                                                 STA     WA.0
8525 2E E2 FE                                                 INW     IP
8528 1D E2 FE                                                 LDR     IP
852B 16 E5 FE                                                 STA     WA.1
852E 2E E2 FE                                                 INW     IP
8531 1D E4 FE                                         NEXT10: LDR     WA              ; BC/TMP = (WA)+
8534 16 F8 FE                                                 STA     BC
8537 2E E4 FE                                                 INW     WA
853A 1D E4 FE                                                 LDR     WA
853D 16 F9 FE                                                 STA     TMP
8540 2E E4 FE                                                 INW     WA
8543 26 C9 F6                                                 INB     CLK0            ; Increment the fake clock tick counter
8546 3A 58 85                                                 BNE     NEXT20          ; :
8549 26 CA F6                                                 INB     CLK1            ; :
854C 3A 58 85                                                 BNE     NEXT20          ; :
854F 26 CB F6                                                 INB     CLK2            ; :
8552 3A 58 85                                                 BNE     NEXT20          ; :
8555 26 CC F6                                                 INB     CLK3            ; :
8558 1C F8 FE                                         NEXT20: JPR     BC              ; jump @(BC/TMP)
                                                      
                                                      ; ------------------------------
                                                      ;       Push TRUE and FALSE
                                                      
855B 2C EC FE                                         PUSHT:  CLW     R1              ; A zero
855E 2F EC FE                                                 DEW     R1              ; Make it into a -1 i.e. TRUE flag
8561 14 0D 85                                                 JPA     PUSH
                                                      
8564 2C EC FE                                         PUSHF:  CLW     R1              ; A zero
8567 14 0D 85                                                 JPA     PUSH
                                                      
                                                      ; ------------------------------
                                                      ;       Push R1X, MSB as TOS
                                                      
856A 2F E6 FE                                         DPUSH:  DEW     SP              ; -(SP) = R1X
856D 15 ED FE                                                 LDA     R1.1
8570 1E E6 FE                                                 STR     SP
8573 2F E6 FE                                                 DEW     SP
8576 15 EC FE                                                 LDA     R1.0
8579 1E E6 FE                                                 STR     SP
857C 2F E6 FE                                                 DEW     SP
857F 15 EF FE                                                 LDA     R1.3
8582 1E E6 FE                                                 STR     SP
8585 2F E6 FE                                                 DEW     SP
8588 15 EE FE                                                 LDA     R1.2
858B 1E E6 FE                                                 STR     SP
858E 14 1F 85                                                 JPA     NEXT
                                                      
                                                      ; INCLUDE         primaries.asm
                                                      
                                                      ; ----------------------------------------------------------------------
                                                      ; FORTH PRIMARIES
                                                      ;
                                                      
8591 83 4C 49 D4                                      HLIT:   DB      ^3 "LI" ^'T'                            ; ***** LIT
8595 00 00                                                    DW      0
8597 99 85                                            LIT:    DW      LIT0
8599 38 2A 80                                         LIT0:   JPS     _LIT            ; R1 = (IP)+
859C 14 0D 85                                                 JPA     PUSH            ; -(SP) = R1; NEXT
                                                      
859F 87 45 58 45 43 55 54 C5                          HEXEC:  DB      ^7 "EXECUT" ^'E'                        ; ***** EXECUTE
85A7 91 85                                                    DW      HLIT
85A9 AB 85                                            EXEC:   DW      EXEC0
85AB 1D E6 FE                                         EXEC0:  LDR     SP              ; WA = (SP)+
85AE 16 E4 FE                                                 STA     WA.0
85B1 2E E6 FE                                                 INW     SP
85B4 1D E6 FE                                                 LDR     SP
85B7 16 E5 FE                                                 STA     WA.1
85BA 2E E6 FE                                                 INW     SP
85BD 14 31 85                                                 JPA     NEXT10          ; jump @(WA)+
                                                      
85C0 86 42 52 41 4E 43 C8                             HBRAN:  DB      ^6 "BRANC" ^'H'                         ; ***** BRANCH
85C7 9F 85                                                    DW      HEXEC
85C9 CB 85                                            BRAN:   DW      BRAN0
85CB 38 3D 80                                         BRAN0:  JPS     _BRAN           ; IP = IP + (IP)
85CE 14 1F 85                                                 JPA     NEXT
                                                      
85D1 87 30 42 52 41 4E 43 C8                          HZBRAN: DB      ^7 "0BRANC" ^'H'                        ; ***** 0BRANCH
85D9 C0 85                                                    DW      HBRAN
85DB DD 85                                            ZBRAN:  DW      ZBRAN0
85DD 1D E6 FE                                         ZBRAN0: LDR     SP
85E0 11 00                                                    CPI     0               ; Low byte non-zero?
85E2 3A F6 85                                                 BNE     ZBRA10          ; YES: Do not branch
85E5 2E E6 FE                                                 INW     SP
85E8 1D E6 FE                                                 LDR     SP
85EB 11 00                                                    CPI     0               ; High byte non-zero?
85ED 3A F9 85                                                 BNE     ZBRA20          ; YES: Do not branch
85F0 2E E6 FE                                                 INW     SP
85F3 14 CB 85                                                 JPA     BRAN0           ; IP = IP + (IP); NEXT
85F6 2E E6 FE                                         ZBRA10: INW     SP
85F9 2E E6 FE                                         ZBRA20: INW     SP
85FC 2E E2 FE                                                 INW     IP              ; Just skip jump offset
85FF 2E E2 FE                                                 INW     IP
8602 14 1F 85                                                 JPA     NEXT
                                                      
8605 87 28 2B 4C 4F 4F 50 A9                          HXPLOO: DB      ^7 "(+LOOP" ^')'                        ; ***** (+LOOP)
860D D1 85                                                    DW      HZBRAN
860F 11 86                                            XPLOO:  DW      XPLOO0
8611 38 AF 80                                         XPLOO0: JPS     _GET2           ; R2 = (SP) [only copying increment]
8614 38 21 81                                                 JPS     _RPOP1          ; R1 = (RP)+
8617 38 18 82                                                 JPS     _ADD16          ; R1 = counter'
861A 38 38 81                                                 JPS     _RGET2          ; R2 = limit
861D 38 D5 81                                                 JPS     _RPUSH1         ; -(RP) = R1'
8620 38 F9 80                                                 JPS     _POP3           ; R3 = (SP)+ [now popping incr]
8623 15 F5 FE                                                 LDA     R3.1            ; Is increment negative?
8626 11 00                                                    CPI     0               ; :
8628 3E 2E 86                                                 BPL     XPLO10
                                                              ; Handle negative increment
862B 38 60 83                                                 JPS     _XCH16          ; R1 <-> R2
                                                              ; Compare counter to limit
862E 15 ED FE                                         XPLO10: LDA     R1.1            ; Compare MSB
8631 19 F1 FE                                                 CPA     R2.1            ; :
8634 3F CB 85                                                 BMI     BRAN0           ; R2 is greater, continue looping
8637 3B 3D 86                                                 BEQ     XPLO20          ; MSBs are equal, check LSBs
863A 14 46 86                                                 JPA     XPLO30          ; R1 is greater, stop looping
                                                              ; MSBs are equal
863D 15 EC FE                                         XPLO20: LDA     R1.0            ; Compare LSB
8640 19 F0 FE                                                 CPA     R2.0            
8643 3F CB 85                                                 BMI     BRAN0           ; R2 is greater, continue looping
                                                              ; Limit reached, cleanup rstack and stop looping
8646 0E 04                                            XPLO30: LDI     4               ; Drop loop counter ...
8648 30 E8 FE                                                 ADW     RP              ; ... and loop limit
864B 0E 02                                                    LDI     2               ; Skip branch offset
864D 30 E2 FE                                                 ADW     IP              ; :
8650 14 1F 85                                                 JPA     NEXT
                                                      
8653 86 28 4C 4F 4F 50 A9                             HXLOOP: DB      ^6 "(LOOP" ^')'                         ; ***** (LOOP)
865A 05 86                                                    DW      HXPLOO
865C 5E 86                                            XLOOP:  DW      XLOOP0
865E 2C EC FE                                         XLOOP0: CLW     R1              ; Push a one
8661 2E EC FE                                                 INW     R1              ; :
8664 38 7B 81                                                 JPS     _PUSH1          ; :
8667 14 11 86                                                 JPA     XPLOO0          ; (+LOOP)
                                                      
866A 84 28 44 4F A9                                   HXDO:   DB      ^4 "(DO" ^')'                           ; ***** (DO)
866F 53 86                                                    DW      HXLOOP
8671 73 86                                            XDO:    DW      XDO0
8673 38 03 81                                         XDO0:   JPS     _POP21          ; Loop counter, limit
8676 38 D5 81                                                 JPS     _RPUSH1         ; Push limit onto rstack
8679 38 F3 81                                                 JPS     _RPUSH2         ; Push loop counter onto rstack
867C 14 1F 85                                                 JPA     NEXT
                                                      
867F 81 C9                                            HI:     DB      ^1 ^'I'                                 ; ***** I
8681 6A 86                                                    DW      HXDO
8683 85 86                                            I:      DW      I0
8685 38 1A 81                                         I0:     JPS     _RGET1          ; Get loop counter
8688 14 0D 85                                                 JPA     PUSH            ; Push it onto dstack
                                                      
868B 85 44 49 47 49 D4                                HDIGIT: DB      ^5 "DIGI" ^'T'                          ; ***** DIGIT
8691 7F 86                                                    DW      HI
8693 95 86                                            DIGIT:  DW      DIGIT0
8695 38 03 81                                         DIGIT0: JPS     _POP21          ; R2 = base, R1 = char
8698 15 EC FE                                                 LDA     R1.0            ; Get character into A
869B 11 41                                                    CPI     'A'             ; Greater or equal to 'A'?
869D 3F AA 86                                                 BMI     DIGI10          ; NO: Then it has to be '0' - '9'
86A0 11 5B                                                    CPI     '['             ; Less than '[' (i.e. 'A' - 'Z')?
86A2 3E 64 85                                                 BPL     PUSHF           ; NO: Not a digit
86A5 10 37                                                    SBI     55              ; A becomes 10
86A7 14 B4 86                                                 JPA     DIGI20          ; Go check against base
                                                              ; '0' - '9' case
86AA 10 30                                            DIGI10: SBI     '0'             ; Assume '0' - '9'
86AC 3F 64 85                                                 BMI     PUSHF           ; Oops! Negative, not a digit
86AF 11 0A                                                    CPI     10              ; Greater than 9?
86B1 3E 64 85                                                 BPL     PUSHF           ; YES: Not a digit
                                                              ; Check result against base
86B4 19 F0 FE                                         DIGI20: CPA     R2.0            ; Less than base?
86B7 3F BD 86                                                 BMI     DIGI77          ; YES: Conversion done
86BA 14 64 85                                                 JPA     PUSHF           ; NO: Not a digit
                                                              ; Conversion successful
86BD 16 EC FE                                         DIGI77: STA     R1.0            ; Store binary value
86C0 38 7B 81                                                 JPS     _PUSH1          ; Push the value
86C3 14 5B 85                                                 JPA     PUSHT           ; Push TRUE; NEXT
                                                      
86C6 86 28 46 49 4E 44 A9                             HPFIND: DB      ^6 "(FIND" ^')'                         ; ***** (FIND)
86CD 8B 86                                                    DW      HDIGIT
86CF D1 86                                            PFIND:  DW      PFIND0
86D1 38 73 80                                         PFIND0: JPS     _POP1           ; NFA
86D4 38 F9 80                                                 JPS     _POP3           ; String address
86D7 15 F4 FE                                         PFIN10: LDA     R3.0            ; R2 = R3 (string address)
86DA 16 F0 FE                                                 STA     R2.0            ; :
86DD 15 F5 FE                                                 LDA     R3.1            ; :
86E0 16 F1 FE                                                 STA     R2.1            ; :
                                                              ; Fast comparison of length bytes
86E3 1D EC FE                                                 LDR     R1              ; Get lByte
86E6 16 EE FE                                                 STA     R1.2            ; ... Store as potential result
86E9 05                                                       LSL                     ; lByte &= 0x3F
86EA 05                                                       LSL                     ; :
86EB 07                                                       LSR                     ; :
86EC 07                                                       LSR                     ; :
86ED 16 F2 FE                                                 STA     R2.2            ; R2.2 is counter for string match
86F0 21 F0 FE                                                 CPR     R2              ; lByte == string length?
86F3 3A 12 87                                                 BNE     PFIN25          ; NO: Move over to next header
                                                              ; Length bytes match, check names
86F6 2E EC FE                                         PFIN20: INW     R1              ; Bump pointers
86F9 2E F0 FE                                                 INW     R2              ; :
86FC 1D EC FE                                                 LDR     R1              ; Get char from dictionary
86FF 05                                                       LSL                     ; char &= 0x7F
8700 07                                                       LSR                     ; :
8701 21 F0 FE                                                 CPR     R2              ; Is it a match with search string?
8704 3A 1E 87                                                 BNE     PFIN30          ; NO: Look at next header in dictionary
8707 27 F2 FE                                                 DEB     R2.2            ; YES: Decrement character counter
870A 11 00                                                    CPI     0               ; At end of string?
870C 3B 3F 87                                                 BEQ     PFIN77          ; YES: This is the word we are looking for
870F 14 F6 86                                                 JPA     PFIN20          ; Match so far, try next char
                                                              ; Step to next header in dictionary
8712 05                                               PFIN25: LSL                     ; Eliminate potential smudge bit
8713 05                                                       LSL                     ; A = A & 0x1F
8714 05                                                       LSL                     ; lByte consists of [^ISnnnnn]
8715 07                                                       LSR                     ; :
8716 07                                                       LSR                     ; :
8717 07                                                       LSR                     ; :
8718 16 F2 FE                                                 STA     R2.2            ; : also update char counter
871B 2E EC FE                                                 INW     R1              ; Bump NFA pointer to actual characters
871E 2E EC FE                                         PFIN30: INW     R1              ; Bump NFA pointer
8721 27 F2 FE                                                 DEB     R2.2            ; Decrement character counter
8724 11 00                                                    CPI     0               ; End of name field?
8726 3A 1E 87                                                 BNE     PFIN30          ; NO: Step to next char
8729 38 50 82                                                 JPS     _ATR1           ; YES: R1 = (R1)
872C 15 ED FE                                                 LDA     R1.1            ; At end of dictionary?
872F 11 00                                                    CPI     0               ; :
8731 3A D7 86                                                 BNE     PFIN10          ; NO: Try this word for match
8734 15 EC FE                                                 LDA     R1.0            ; :
8737 11 00                                                    CPI     0               ; :
8739 3A D7 86                                                 BNE     PFIN10          ; NO: Try this word for match
                                                              ; Word not found, return a single FALSE
873C 14 64 85                                         PFIN88: JPA     PUSHF           ; Done
                                                              ; Word found, return PFA, lByte, TRUE
873F 0E 05                                            PFIN77: LDI     5               ; Bump ptr to PFA
8741 30 EC FE                                                 ADW     R1              ; :
8744 38 7B 81                                                 JPS     _PUSH1          ; Push PFA
8747 15 EE FE                                                 LDA     R1.2            ; Get stored length byte
874A 16 EC FE                                                 STA     R1.0            ; :
874D 24 ED FE                                                 CLB     R1.1            ; Clear MSB
8750 38 7B 81                                                 JPS     _PUSH1          ; Push length byte
8753 14 5B 85                                                 JPA     PUSHT           ; Done
                                                      
8756 87 45 4E 43 4C 4F 53 C5                          HENCL:  DB      ^7 "ENCLOS" ^'E'                        ; ***** ENCLOSE
875E C6 86                                                    DW      HPFIND
8760 62 87                                            ENCL:   DW      ENCL0
8762 38 F9 80                                         ENCL0:  JPS     _POP3           ; Get delimiter char
8765 38 6C 80                                                 JPS     _GET1           ; Get addr of input
8768 2C F0 FE                                                 CLW     R2              ; Initialize char index
                                                              ; Scan preceeding delimiters
876B 1D EC FE                                         ENCL10: LDR     R1              ; Get char from input
876E 11 00                                                    CPI     0               ; Is it <NUL>?
8770 3B A8 87                                                 BEQ     ENCL50          ; YES: <NUL> before first non-delimiter
8773 19 F4 FE                                                 CPA     R3.0            ; Is it a delimiter?
8776 3A 82 87                                                 BNE     ENCL20          ; NO: We have the start of next token
8779 2E EC FE                                                 INW     R1              ; Bump to next char ...
877C 2E F0 FE                                                 INW     R2              ; ... also increase index
877F 14 6B 87                                                 JPA     ENCL10          ; Go back to look at next char
                                                              ; Start of token
8782 38 99 81                                         ENCL20: JPS     _PUSH2          ; Push result n1 (first char of token)
8785 1D EC FE                                         ENCL30: LDR     R1              ; Get char from input
8788 11 00                                                    CPI     0               ; Is it <NUL>?
878A 3B AE 87                                                 BEQ     ENCL60          ; YES: <NUL> found
878D 19 F4 FE                                                 CPA     R3.0            ; Is it a delimiter?
8790 3B 9C 87                                                 BEQ     ENCL40          ; YES: We have the end of the token
8793 2E EC FE                                                 INW     R1              ; Bump to next char ...
8796 2E F0 FE                                                 INW     R2              ; ... also increase index
8799 14 85 87                                                 JPA     ENCL30          ; Go back to look at next char
                                                              ; End of token
879C 38 99 81                                         ENCL40: JPS     _PUSH2          ; Push result n2 (ending delimiter)
879F 2E F0 FE                                                 INW     R2              ; Also push n3 ...
87A2 38 99 81                                                 JPS     _PUSH2          ; : ... (index to first non-scanned char)
87A5 14 1F 85                                                 JPA     NEXT            ; Done
                                                              ; <NUL> word found
87A8 38 99 81                                         ENCL50: JPS     _PUSH2          ; Push i (index to <NUL>)
87AB 2E F0 FE                                                 INW     R2              ; Push i + 1 (a null is one character long)
                                                              ; Token ends with a <NUL>
87AE 38 99 81                                         ENCL60: JPS     _PUSH2          ; :
87B1 38 99 81                                                 JPS     _PUSH2          ; :
87B4 14 1F 85                                                 JPA     NEXT            ; Done
                                                      
                                                      ; NOTE: EMIT, KEY, ?TERMINAL and CR moved to "extras" as they have been
                                                      ;       implemented as vectored functions in Minimal-FORTH
                                                      
87B7 85 43 4D 4F 56 C5                                HCMOVE: DB      ^5 "CMOV" ^'E'                          ; ***** CMOVE
87BD 56 87                                                    DW      HENCL
87BF C1 87                                            CMOVE:  DW      CMOVE0
87C1 38 00 81                                         CMOVE0: JPS     _POP321         ; R3 = count, R2 = dst, R1 = src
87C4 1D EC FE                                         CMOV10: LDR     R1              ; Get byte from source
87C7 1E F0 FE                                                 STR     R2              ; Store to destination
87CA 2E EC FE                                                 INW     R1              ; Bump source pointer
87CD 2E F0 FE                                                 INW     R2              ; Bump destination pointer
87D0 2F F4 FE                                                 DEW     R3              ; Decrement count
87D3 15 F4 FE                                                 LDA     R3.0            ; Low byte zero?
87D6 11 00                                                    CPI     0               ; :
87D8 3A C4 87                                                 BNE     CMOV10          ; NO: One more byte
87DB 15 F5 FE                                                 LDA     R3.1            ; High byte zero?
87DE 11 00                                                    CPI     0               ; :
87E0 3A C4 87                                                 BNE     CMOV10          ; NO: One more byte
87E3 14 1F 85                                                 JPA     NEXT            ; YES: Count zero. Done.
                                                      
87E6 82 55 AA                                         HUSTAR: DB      ^2 "U" ^'*'                             ; ***** U*
87E9 B7 87                                                    DW      HCMOVE
87EB ED 87                                            USTAR:  DW      USTAR0
87ED 38 03 81                                         USTAR0: JPS     _POP21          ; R2 = oper2, R1 = oper1
87F0 38 32 84                                                 JPS     _UMULT          ; u32 = u16 * u16
87F3 2F E6 FE                                                 DEW     SP              ; -(SP) = R3X
87F6 15 F5 FE                                                 LDA     R3.1            ; :
87F9 1E E6 FE                                                 STR     SP              ; :
87FC 2F E6 FE                                                 DEW     SP              ; :
87FF 15 F4 FE                                                 LDA     R3.0            ; :
8802 1E E6 FE                                                 STR     SP              ; :
8805 2F E6 FE                                                 DEW     SP              ; :
8808 15 F7 FE                                                 LDA     R3.3            ; :
880B 1E E6 FE                                                 STR     SP              ; :
880E 2F E6 FE                                                 DEW     SP              ; :
8811 15 F6 FE                                                 LDA     R3.2            ; :
8814 1E E6 FE                                                 STR     SP              ; :
8817 14 1F 85                                                 JPA     NEXT            ; Done
                                                      
881A 82 55 AF                                         HUSLAS: DB      ^2 "U" ^'/'                             ; ***** U/
881D E6 87                                                    DW      HUSTAR
881F 21 88                                            USLAS:  DW      USLAS0
8821 38 03 81                                         USLAS0: JPS     _POP21          ; R2 = divisor, R1 = dividend-hi
8824 15 EC FE                                                 LDA     R1.0            ; Move high part to R1.2 and R1.3
8827 16 EE FE                                                 STA     R1.2            ; :
882A 15 ED FE                                                 LDA     R1.1            ; :
882D 16 EF FE                                                 STA     R1.3            ; :
8830 38 73 80                                                 JPS     _POP1           ; dividend, low 16b
8833 38 A3 84                                                 JPS     _UDIV           ; u32 / u16 --> quot_u16, rem_u16
8836 14 FB 84                                                 JPA     IPUSH           ; Push R1H; Push R1L; NEXT
                                                      
8839 83 41 4E C4                                      HAND:   DB      ^3 "AN" ^'D'                            ; ***** AND
883D 1A 88                                                    DW      HUSLAS
883F 41 88                                            AND:    DW      AND0
8841 38 03 81                                         AND0:   JPS     _POP21          ; R2 = oper2, R1 = oper1
8844 38 0B 84                                                 JPS     _AND16          ; R1 = R1 & R2
8847 14 0D 85                                                 JPA     PUSH            ; Done
                                                      
884A 82 4F D2                                         HOR:    DB      ^2 "O" ^'R'                             ; ***** OR
884D 39 88                                                    DW      HAND
884F 51 88                                            OR:     DW      OR0
8851 38 03 81                                         OR0:    JPS     _POP21          ; R2 = oper2, R1 = oper1
8854 38 18 84                                                 JPS     _OR16           ; R1 = R1 | R2
8857 14 0D 85                                                 JPA     PUSH            ; Done
                                                      
885A 83 58 4F D2                                      HXOR:   DB      ^3 "XO" ^'R'                            ; ***** XOR
885E 4A 88                                                    DW      HOR
8860 62 88                                            XOR:    DW      XOR0
8862 38 03 81                                         XOR0:   JPS     _POP21          ; R2 = oper2, R1 = oper1
8865 38 25 84                                                 JPS     _XOR16          ; R1 = R1 ^ R2
8868 14 0D 85                                                 JPA     PUSH            ; Done
                                                      
886B 83 4E 4F D4                                      HNOT:   DB      ^3 "NO" ^'T'                            ; ***** NOT
886F 5A 88                                                    DW      HXOR
8871 50 89                                            NOT:    DW      ZEQU
                                                      
8873 83 53 50 C0                                      HSPAT:  DB      ^3 "SP" ^'@'                            ; ***** SP@
8877 6B 88                                                    DW      HNOT
8879 7B 88                                            SPAT:   DW      SPAT0
887B 15 E6 FE                                         SPAT0:  LDA     SP.0            ; Get stack pointer
887E 16 EC FE                                                 STA     R1.0            ; : into R1
8881 15 E7 FE                                                 LDA     SP.1            ; :
8884 16 ED FE                                                 STA     R1.1            ; :
8887 14 0D 85                                                 JPA     PUSH            ; Push R1; NEXT
                                                      
888A 83 53 50 A1                                      HSPSTO: DB      ^3 "SP" ^'!'                            ; ***** SP!
888E 73 88                                                    DW      HSPAT
8890 92 88                                            SPSTO:  DW      SPSTO0
8892 0E 12                                            SPSTO0: LDI     18              ; Index of SP0
8894 16 F0 FE                                                 STA     R2.0            ; : in boot table
8897 38 B9 8C                                                 JPS     _PORIG          ; R3 = &bootTable[R2]
889A 38 6C 82                                                 JPS     _LD16           ; R1 = XSP
889D 15 EC FE                                                 LDA     R1.0            ; SP = R1
88A0 16 E6 FE                                                 STA     SP.0            ; :
88A3 15 ED FE                                                 LDA     R1.1            ; :
88A6 16 E7 FE                                                 STA     SP.1            ; :
88A9 14 1F 85                                                 JPA     NEXT            ; Done
                                                      
88AC 83 52 50 A1                                      HRPSTO: DB      ^3 "RP" ^'!'                            ; ***** RP!
88B0 8A 88                                                    DW      HSPSTO
88B2 B4 88                                            RPSTO:  DW      RPSTO0
88B4 0E 14                                            RPSTO0: LDI     20              ; Index of SP0
88B6 16 F0 FE                                                 STA     R2.0            ; : in boot table
88B9 38 B9 8C                                                 JPS     _PORIG          ; R3 = &bootTable[R2]
88BC 38 6C 82                                                 JPS     _LD16           ; R1 = XRP
88BF 15 EC FE                                                 LDA     R1.0            ; SP = R1
88C2 16 E8 FE                                                 STA     RP.0            ; :
88C5 15 ED FE                                                 LDA     R1.1            ; :
88C8 16 E9 FE                                                 STA     RP.1            ; :
88CB 14 1F 85                                                 JPA     NEXT            ; Done
                                                      
88CE 83 55 50 A1                                      HUPSTO: DB      ^3 "UP" ^'!'                            ; ***** UP!
88D2 AC 88                                                    DW      HRPSTO
88D4 D6 88                                            UPSTO:  DW      UPSTO0
88D6 0E 10                                            UPSTO0: LDI     16              ; Index of UP0
88D8 16 F0 FE                                                 STA     R2.0            ; : in boot table
88DB 38 B9 8C                                                 JPS     _PORIG          ; R3 = &bootTable[R2]
88DE 38 6C 82                                                 JPS     _LD16           ; R1 = XUP
88E1 15 EC FE                                                 LDA     R1.0            ; UP = R1
88E4 16 EA FE                                                 STA     UP.0            ; :
88E7 15 ED FE                                                 LDA     R1.1            ; :
88EA 16 EB FE                                                 STA     UP.1            ; :
88ED 14 1F 85                                                 JPA     NEXT            ; Done
                                                      
88F0 82 3B D3                                         HSEMIS: DB      ^2 ";" ^'S'                             ; ***** ;S
88F3 AC 88                                                    DW      HRPSTO
88F5 F7 88                                            SEMIS:  DW      SEMIS0
88F7 1D E8 FE                                         SEMIS0: LDR     RP              ; IP = (RP)+
88FA 16 E2 FE                                                 STA     IP.0            ; :
88FD 2E E8 FE                                                 INW     RP              ; :
8900 1D E8 FE                                                 LDR     RP              ; :
8903 16 E3 FE                                                 STA     IP.1            ; :
8906 2E E8 FE                                                 INW     RP              ; :
8909 14 1F 85                                                 JPA     NEXT            ; Done
                                                      
890C 85 4C 45 41 56 C5                                HLEAVE: DB      ^5 "LEAV" ^'E'                          ; ***** LEAVE
8912 F0 88                                                    DW      HSEMIS
8914 16 89                                            LEAVE:  DW      LEAVE0
8916 38 21 81                                         LEAVE0: JPS     _RPOP1          ; 2(RP) = (RP)
8919 38 CE 81                                                 JPS     _RPUT1          ; :
891C 38 D5 81                                                 JPS     _RPUSH1         ; :
891F 14 1F 85                                                 JPA     NEXT
                                                      
8922 82 3E D2                                         HTOR:   DB      ^2 ">" ^'R'                             ; ***** >R
8925 0C 89                                                    DW      HLEAVE
8927 29 89                                            TOR:    DW      TOR0
8929 38 73 80                                         TOR0:   JPS     _POP1           ; -(RP) = (SP)+
892C 38 D5 81                                                 JPS     _RPUSH1         ; :
892F 14 1F 85                                                 JPA     NEXT
                                                      
8932 82 52 BE                                         HFROMR: DB      ^2 "R" ^'>'                             ; ***** R>
8935 22 89                                                    DW      HTOR
8937 39 89                                            FROMR:  DW      FROMR0
8939 38 21 81                                         FROMR0: JPS     _RPOP1          ; -(SP) = (RP)+
893C 14 0D 85                                                 JPA     PUSH            ; :
                                                      
893F 81 D2                                            HR:     DB      ^1 ^'R'                                 ; ***** R
8941 32 89                                                    DW      HFROMR
8943 45 89                                            R:      DW      R0
8945 38 1A 81                                         R0:     JPS     _RGET1          ; -(SP) = (RP)
8948 14 0D 85                                                 JPA     PUSH            ; :
                                                      
894B 82 30 BD                                         HZEQU:  DB      ^2 "0" ^'='                             ; ***** 0=
894E 3F 89                                                    DW      HR
8950 52 89                                            ZEQU:   DW      ZEQU0
8952 38 73 80                                         ZEQU0:  JPS     _POP1
8955 38 5B 89                                                 JPS     _ZEQU
8958 14 0D 85                                                 JPA     PUSH
                                                              ;
895B 15 EC FE                                         _ZEQU:  LDA     R1.0            ; Get LSB
895E 11 00                                                    CPI     0               ; Is it zero?
8960 3A 72 89                                                 BNE     _ZEQ10          ; NO: Return false flag
8963 15 ED FE                                                 LDA     R1.1            ; Get MSB
8966 11 00                                                    CPI     0               ; Is it zero?
8968 3A 72 89                                                 BNE     _ZEQ10          ; NO: Return false flag
                                                              ; Zero case
896B 2C EC FE                                                 CLW     R1              ; True flag
896E 2F EC FE                                                 DEW     R1              ; :
8971 39                                                       RTS                     ; Done
                                                              ; Non-zero case
8972 2C EC FE                                         _ZEQ10: CLW     R1              ; False flag
8975 39                                                       RTS                     ; Done
                                                      
8976 82 30 BC                                         HZLESS: DB      ^2 "0" ^'<'                             ; ***** 0<
8979 4B 89                                                    DW      HZEQU
897B 7D 89                                            ZLESS:  DW      ZLESS0
897D 38 73 80                                         ZLESS0: JPS     _POP1
8980 38 86 89                                                 JPS     _ZLESS
8983 14 0D 85                                                 JPA     PUSH
                                                              ;
8986 15 ED FE                                         _ZLESS: LDA     R1.1            ; Get MSB
8989 11 00                                                    CPI     0               ; Is it negative?
898B 3F 92 89                                                 BMI     _ZLE10          ; YES: Return true flag
                                                              ; Zero or positive case
898E 2C EC FE                                                 CLW     R1              ; NO: Return false flag
8991 39                                                       RTS                     ; Done
                                                              ; Negative case
8992 2C EC FE                                         _ZLE10: CLW     R1              ; True flag
8995 2F EC FE                                                 DEW     R1              ; :
8998 39                                                       RTS                     ; Done
                                                      
8999 81 AB                                            HPLUS:  DB      ^1 ^'+'                                 ; ***** +
899B 76 89                                                    DW      HZLESS
899D 9F 89                                            PLUS:   DW      PLUS0
899F 38 03 81                                         PLUS0:  JPS     _POP21          ; R2 = oper2, R1 = oper1
89A2 38 18 82                                                 JPS     _ADD16          ; R1 = R1 + R2
89A5 14 0D 85                                                 JPA     PUSH            ; -(SP) = R1; NEXT
                                                      
89A8 82 44 AB                                         HDPLUS: DB      ^2 "D" ^'+'                             ; ***** D+
89AB 99 89                                                    DW      HPLUS
89AD AF 89                                            DPLUS:  DW      DPLUS0
89AF 38 BD 80                                         DPLUS0: JPS     _DPOP2          ; Get second operand
89B2 38 7A 80                                                 JPS     _DPOP1          ; Get first operand
89B5 38 2B 82                                                 JPS     _ADD32          ; R1X = R1X + R2X
89B8 14 6A 85                                                 JPA     DPUSH           ; -(SP) = R1X; NEXT
                                                      
89BB 85 4D 49 4E 55 D3                                HMINUS: DB      ^5 "MINU" ^'S'                          ; ***** MINUS
89C1 A8 89                                                    DW      HDPLUS
89C3 C5 89                                            MINUS:  DW      MINUS0
89C5 38 73 80                                         MINUS0: JPS     _POP1           ; Get operand
89C8 38 28 83                                                 JPS     _NEG16          ; Negate
89CB 14 0D 85                                                 JPA     PUSH
                                                      
89CE 86 44 4D 49 4E 55 D3                             HDMINU: DB      ^6 "DMINU" ^'S'                         ; ***** DMINUS
89D5 BB 89                                                    DW      HMINUS
89D7 D9 89                                            DMINU:  DW      DMINU0
89D9 38 7A 80                                         DMINU0: JPS     _DPOP1          ; Get operand
89DC 38 3C 83                                                 JPS     _NEG32          ; Negate
89DF 14 6A 85                                                 JPA     DPUSH
                                                      
89E2 84 50 49 43 CB                                   HPICK:  DB      ^4 "PIC" ^'K'                           ; ***** PICK
89E7 CE 89                                                    DW      HDMINU
89E9 EB 89                                            PICK:   DW      PICK0
89EB 38 F1 89                                         PICK0:  JPS     _PICK
89EE 14 1F 85                                                 JPA     NEXT
                                                              ;
89F1 38 73 80                                         _PICK:  JPS     _POP1           ; Get index number
89F4 15 EC FE                                                 LDA     R1.0            ; Push onto Minimal stack
89F7 36                                                       PHS                     ; :
89F8 38 86 83                                                 JPS     __PICK          ; R1 = n(SP)
89FB 37                                                       PLS                     ; Remove index number
89FC 38 7B 81                                                 JPS     _PUSH1          ; -(SP) = R1
89FF 39                                                       RTS                     ; Done
                                                      
8A00 84 52 4F 4C CC                                   HROLL:  DB      ^4 "ROL" ^'L'                           ; ***** ROLL
8A05 E2 89                                                    DW      HPICK
8A07 09 8A                                            ROLL:   DW      ROLL0
8A09 38 0F 8A                                         ROLL0:  JPS     _ROLL
8A0C 14 1F 85                                                 JPA     NEXT
                                                              ;
8A0F 38 73 80                                         _ROLL:  JPS     _POP1           ; Get index number
8A12 15 EC FE                                                 LDA     R1.0            ; Push onto Minimal stack
8A15 36                                                       PHS                     ; :
8A16 38 9C 83                                                 JPS     __ROLL          ; R1 = n(SP)
8A19 37                                                       PLS                     ; Remove index number
8A1A 39                                                       RTS                     ; Done
                                                      
8A1B 84 4F 56 45 D2                                   HOVER:  DB      ^4 "OVE" ^'R'                           ; ***** OVER
8A20 00 8A                                                    DW      HROLL
8A22 24 8A                                            OVER:   DW      OVER0
8A24 38 2A 8A                                         OVER0:  JPS     _OVER
8A27 14 1F 85                                                 JPA     NEXT
                                                              ;
8A2A 38 B6 80                                         _OVER:  JPS     _POP2           ; n1 n2 -- n1 n2 n1
8A2D 38 6C 80                                                 JPS     _GET1           ; :
8A30 38 99 81                                                 JPS     _PUSH2          ; :
8A33 38 7B 81                                                 JPS     _PUSH1          ; :
8A36 39                                                       RTS
                                                      
8A37 84 44 52 4F D0                                   HDROP:  DB      ^4 "DRO" ^'P'                           ; **** DROP
8A3C 1B 8A                                                    DW      HOVER
8A3E 40 8A                                            DROP:   DW      DROP0
8A40 38 46 8A                                         DROP0:  JPS     _DROP
8A43 14 1F 85                                                 JPA     NEXT
                                                              ;
8A46 0E 02                                            _DROP:  LDI     2               ; n1 --
8A48 30 E6 FE                                                 ADW     SP              ; :
8A4B 39                                                       RTS                     ; Done
                                                      
8A4C 84 53 57 41 D0                                   HSWAP:  DB      ^4 "SWA" ^'P'                           ; **** SWAP
8A51 37 8A                                                    DW      HDROP
8A53 55 8A                                            SWAP:   DW      SWAP0
8A55 38 5B 8A                                         SWAP0:  JPS     _SWAP
8A58 14 1F 85                                                 JPA     NEXT
                                                              ;
8A5B 38 03 81                                         _SWAP:  JPS     _POP21          ; n1 n2 -- n2 n1
8A5E 38 99 81                                                 JPS     _PUSH2          ; :
8A61 38 7B 81                                                 JPS     _PUSH1          ; :
8A64 39                                                       RTS                     ; Done
                                                      
8A65 83 44 55 D0                                      HDUP:   DB      ^3 "DU" ^'P'                            ; **** DUP
8A69 4C 8A                                                    DW      HSWAP
8A6B 6D 8A                                            DUP:    DW      DUP0
8A6D 38 73 8A                                         DUP0:   JPS     _DUP
8A70 14 1F 85                                                 JPA     NEXT
                                                              ;
8A73 38 6C 80                                         _DUP:   JPS     _GET1           ; n1 -- n1 n1
8A76 38 7B 81                                                 JPS     _PUSH1          ; :
8A79 39                                                       RTS
                                                      
8A7A 85 32 4F 56 45 D2                                HTOVER: DB      ^5 "2OVE" ^'R'                          ; ***** 2OVER
8A80 65 8A                                                    DW      HDUP
8A82 84 8A                                            TOVER:  DW      TOVER0
8A84 0E 03                                            TOVER0: LDI     3
8A86 36                                                       PHS
8A87 38 86 83                                                 JPS     __PICK          ; 3 PICK
8A8A 38 7B 81                                                 JPS     _PUSH1
8A8D 38 86 83                                                 JPS     __PICK          ; 3 PICK
8A90 37                                                       PLS
8A91 14 0D 85                                                 JPA     PUSH
                                                      
8A94 85 32 44 52 4F D0                                HTDROP: DB      ^5 "2DRO" ^'P'                          ; ***** 2DROP
8A9A 7A 8A                                                    DW      HTOVER
8A9C 9E 8A                                            TDROP:  DW      TDROP0
8A9E 0E 04                                            TDROP0: LDI     4
8AA0 30 E6 FE                                                 ADW     SP
8AA3 14 1F 85                                                 JPA     NEXT
                                                      
8AA6 85 32 53 57 41 D0                                HTSWAP: DB      ^5 "2SWA" ^'P'                          ; ***** 2SWAP
8AAC 94 8A                                                    DW      HTDROP
8AAE B0 8A                                            TSWAP:  DW      TSWAP0
8AB0 0E 03                                            TSWAP0: LDI     3
8AB2 36                                                       PHS
8AB3 38 9C 83                                                 JPS     __ROLL          ; 3 ROLL
8AB6 38 9C 83                                                 JPS     __ROLL          ; 3 ROLL
8AB9 37                                                       PLS
8ABA 14 1F 85                                                 JPA     NEXT
                                                      
8ABD 84 32 44 55 D0                                   HTDUP:  DB      ^4 "2DU" ^'P'                           ; ***** 2DUP
8AC2 A6 8A                                                    DW      HTSWAP
8AC4 C6 8A                                            TDUP:   DW      TDUP0
8AC6 38 B6 80                                         TDUP0:  JPS     _POP2           ; OVER
8AC9 38 6C 80                                                 JPS     _GET1           ; :
8ACC 38 99 81                                                 JPS     _PUSH2          ; :
8ACF 38 7B 81                                                 JPS     _PUSH1          ; :
8AD2 38 B6 80                                                 JPS     _POP2           ; OVER
8AD5 38 6C 80                                                 JPS     _GET1           ; :
8AD8 38 99 81                                                 JPS     _PUSH2          ; :
8ADB 14 0D 85                                                 JPA     PUSH            ; :
                                                      
                                                      
8ADE 82 2B A1                                         HPSTOR: DB      ^2 "+" ^'!'                             ; ***** +!
8AE1 BD 8A                                                    DW      HTDUP
8AE3 E5 8A                                            PSTOR:  DW      PSTOR0
8AE5 38 EB 8A                                         PSTOR0: JPS     _PSTOR
8AE8 14 1F 85                                                 JPA     NEXT
                                                              ;
8AEB 38 F9 80                                         _PSTOR: JPS     _POP3           ; R3 = addr
8AEE 38 B6 80                                                 JPS     _POP2           ; R2 = incr
8AF1 38 6C 82                                         _PSTO3: JPS     _LD16           ; R1 = (R3)
8AF4 38 18 82                                                 JPS     _ADD16          ; R1 = R1 + R2
8AF7 38 7F 82                                                 JPS     _ST16           ; (R3) = R1
8AFA 39                                                       RTS                     ; Done
                                                      
8AFB 86 54 4F 47 47 4C C5                             HTOGGL: DB      ^6 "TOGGL" ^'E'                         ; ***** TOGGLE
8B02 DE 8A                                                    DW      HPSTOR
8B04 06 8B                                            TOGGL:  DW      TOGGL0
8B06 38 B6 80                                         TOGGL0: JPS     _POP2           ; R2 = bit mask
8B09 38 F2 80                                                 JPS     _GET3           ; R3 = addr (leave copy on stack)
8B0C 1D F4 FE                                                 LDR     R3              ; Get the byte
8B0F 16 EC FE                                                 STA     R1.0            ; :
8B12 38 D8 82                                                 JPS     _XOR8           ; R1.0 = R1.0 ^ R2.0
8B15 38 F9 80                                                 JPS     _POP3           ; R3 = addr
8B18 15 EC FE                                                 LDA     R1.0            ; Update the byte
8B1B 1E F4 FE                                                 STR     R3              ; :
8B1E 14 1F 85                                                 JPA     NEXT            ; Done
                                                      
8B21 85 3E 42 41 4E CB                                HTBANK: DB      ^5 ">BAN" ^'K'                          ; >BANK
8B27 FB 8A                                                    DW      HTOGGL
8B29 2B 8B                                            TBANK:  DW      TBANK0
8B2B 38 73 80                                         TBANK0: JPS     _POP1           ; Get bank number from data stack into R1
8B2E 15 EC FE                                                 LDA     R1.0            ; Get LSB
8B31 16 C7 F6                                                 STA     _BANK           ; Store for future reference
8B34 01                                                       BNK                     ; Do the actual bank switch
8B35 14 1F 85                                                 JPA     NEXT            ; Done
                                                              
8B38 81 C0                                            HAT:    DB      ^1 ^'@'                                 ; ***** @
8B3A 21 8B                                                    DW      HTBANK
8B3C 3E 8B                                            AT:     DW      AT0
8B3E 38 44 8B                                         AT0:    JPS     _AT
8B41 14 1F 85                                                 JPA     NEXT
                                                              ;
8B44 38 F9 80                                         _AT:    JPS     _POP3           ; R3 = addr
8B47 38 6C 82                                                 JPS     _LD16           ; R1 = (R3)
8B4A 38 7B 81                                                 JPS     _PUSH1           ; -(SP) = R1
8B4D 39                                                       RTS
                                                      
8B4E 82 43 C0                                         HCAT:   DB      ^2 "C" ^'@'                             ; ***** C@
8B51 38 8B                                                    DW      HAT
8B53 55 8B                                            CAT:    DW      CAT0
8B55 2C EC FE                                         CAT0:   CLW     R1              ; R1 = 0
8B58 38 F9 80                                                 JPS     _POP3           ; R3 = addr
8B5B 1D F4 FE                                                 LDR     R3              ; A = (R3)
8B5E 16 EC FE                                                 STA     R1.0            ; R1 = A
8B61 14 0D 85                                                 JPA     PUSH            ; -(SP) = R1; NEXT
                                                      
8B64 81 A1                                            HSTORE: DB      ^1 ^'!'                                 ; ***** !
8B66 4E 8B                                                    DW      HCAT
8B68 6A 8B                                            STORE:  DW      STORE0
8B6A 38 70 8B                                         STORE0: JPS     _STORE
8B6D 14 1F 85                                                 JPA     NEXT
                                                              ;
8B70 38 F9 80                                         _STORE: JPS     _POP3           ; R3 = addr
8B73 38 73 80                                                 JPS     _POP1           ; R1 = data
8B76 38 7F 82                                                 JPS     _ST16           ; (R3) = R1
8B79 39                                                       RTS                     ; Done
                                                      
8B7A 82 43 A1                                         HCSTOR: DB      ^2 "C" ^'!'                             ; ***** C!
8B7D 64 8B                                                    DW      HSTORE
8B7F 81 8B                                            CSTOR:  DW      CSTOR0
8B81 38 03 81                                         CSTOR0: JPS     _POP21          ; R2 = addr, R1 = data
8B84 15 EC FE                                                 LDA     R1.0            ; A = R1.0
8B87 1E F0 FE                                                 STR     R2              ; (R3) = A
8B8A 14 1F 85                                                 JPA     NEXT            ; Done
                                                      
                                                      ; INCLUDE         precompiled.asm
                                                      
                                                      ; ----------------------------------------------------------------------
                                                      ; PRECOMPILED FORTH WORDS
                                                      ;
                                                      
8B8D C1 BA                                            HCOLON: DB      ^^1 ^':'                                ; ***** :
8B8F 7A 8B                                                    DW      HCSTOR
8B91 A5 8B 52 90 0D 90 A8 8D 3C 8B 9A 8D 68 8B        COLON:  DW      DOCOL QEXEC SCSP CURR AT CONT STORE
8B9F 96 95 D7 90 3E 91                                        DW      CREAT RBRAC PSCOD
8BA5 2F E8 FE                                         DOCOL:  DEW     RP              ; -(RP) = IP
8BA8 15 E3 FE                                                 LDA     IP.1            ; :
8BAB 1E E8 FE                                                 STR     RP              ; :
8BAE 2F E8 FE                                                 DEW     RP              ; :
8BB1 15 E2 FE                                                 LDA     IP.0            ; :
8BB4 1E E8 FE                                                 STR     RP              ; :
8BB7 15 E4 FE                                                 LDA     WA.0            ; IP = WA
8BBA 16 E2 FE                                                 STA     IP.0            ; :
8BBD 15 E5 FE                                                 LDA     WA.1            ; :
8BC0 16 E3 FE                                                 STA     IP.1            ; :
8BC3 14 1F 85                                                 JPA     NEXT
                                                      
8BC6 C1 BB                                            HSEMI:  DB      ^^1 ^';'                                ; ***** ;
8BC8 8D 8B                                                    DW      HCOLON
8BCA A5 8B 7C 90 B3 90 F5 88 EC 90 C9 90 F5 88        SEMI:   DW      DOCOL QCSP COMP SEMIS SMUDG LBRAC SEMIS
                                                      
8BD8 88 43 4F 4E 53 54 41 4E D4                       HCON:   DB      ^8 "CONSTAN" ^'T'                       ; ***** CONSTANT
8BE1 C6 8B                                                    DW      HSEMI
8BE3 A5 8B 96 95 EC 90 CA 8E 3E 91                    CON:    DW      DOCOL CREAT SMUDG COMMA PSCOD
8BED 1D E4 FE                                         DOCON:  LDR     WA              ; -(SP) = (WA)
8BF0 16 EC FE                                                 STA     R1.0            ; :
8BF3 2E E4 FE                                                 INW     WA              ; :
8BF6 1D E4 FE                                                 LDR     WA              ; :
8BF9 16 ED FE                                                 STA     R1.1            ; :
8BFC 2F E4 FE                                                 DEW     WA              ; :
8BFF 14 0D 85                                                 JPA     PUSH            ; Done
                                                      
8C02 88 56 41 52 49 41 42 4C C5                       HVAR:   DB      ^8 "VARIABL" ^'E'                       ; ***** VARIABLE
8C0B D8 8B                                                    DW      HCON
8C0D A5 8B E3 8B 3E 91                                VAR:    DW      DOCOL CON PSCOD
8C13 2F E6 FE                                         DOVAR:  DEW     SP              ; -(SP) = WA
8C16 15 E5 FE                                                 LDA     WA.1            ; :
8C19 1E E6 FE                                                 STR     SP              ; :
8C1C 2F E6 FE                                                 DEW     SP              ; :
8C1F 15 E4 FE                                                 LDA     WA.0            ; :
8C22 1E E6 FE                                                 STR     SP              ; :
8C25 14 1F 85                                                 JPA     NEXT            ; Done
                                                      
8C28 84 55 53 45 D2                                   HUSER:  DB      ^4 "USE" ^'R'                           ; ***** USER
8C2D 02 8C                                                    DW      HVAR
8C2F A5 8B E3 8B 3E 91                                USER:   DW      DOCOL CON PSCOD
8C35 1D E4 FE                                         DOUSE:  LDR     WA              ; Compute UP[index]
8C38 17 EA FE                                                 ADA     UP.0            ; :
8C3B 16 EC FE                                                 STA     R1.0            ; :
8C3E 2E E4 FE                                                 INW     WA              ; :
8C41 1D E4 FE                                                 LDR     WA              ; :
8C44 1A EB FE                                                 ACA     UP.1            ; :
8C47 16 ED FE                                                 STA     R1.1            ; :
8C4A 14 0D 85                                                 JPA     PUSH            ; Push address; NEXT
                                                      
                                                      ; ------------------------------
                                                      ; PRECOMPILED CONSTANTS
                                                      
8C4D 82 2D B1                                         HMONE:  DB      ^2 "-" ^'1'                             ; ***** -1
8C50 28 8C                                                    DW      HUSER
8C52 ED 8B FF FF                                      MONE:   DW      DOCON -1
                                                      
8C56 81 B0                                            HZERO:  DB      ^1 ^'0'                                 ; ***** 0
8C58 4D 8C                                                    DW      HMONE
8C5A ED 8B 00 00                                      ZERO:   DW      DOCON 0
                                                      
8C5E 81 B1                                            HONE:   DB      ^1 ^'1'                                 ; ***** 1
8C60 56 8C                                                    DW      HZERO
8C62 ED 8B 01 00                                      ONE:    DW      DOCON 1
                                                      
8C66 81 B2                                            HTWO:   DB      ^1 ^'2'                                 ; ***** 2
8C68 5E 8C                                                    DW      HONE
8C6A ED 8B 02 00                                      TWO:    DW      DOCON 2
                                                      
8C6E 81 B3                                            HTHREE: DB      ^1 ^'3'                                 ; ***** 3
8C70 66 8C                                                    DW      HTWO
8C72 ED 8B 03 00                                      THREE:  DW      DOCON 3
                                                      
8C76 82 42 CC                                         HBL:    DB      ^2 "B" ^'L'                             ; ***** BL
8C79 6E 8C                                                    DW      HTHREE
8C7B ED 8B 20 00                                      BL:     DW      DOCON 32
                                                      
8C7F 83 43 2F CC                                      HCL:    DB      ^3 "C/" ^'L'                            ; ***** C/L
8C83 76 8C                                                    DW      HBL
8C85 ED 8B 3C 00                                      CL:     DW      DOCON 60
                                                      
8C89 85 42 2F 42 55 C6                                HBBUF:  DB      ^5 "B/BU" ^'F'                          ; ***** B/BUF
8C8F 7F 8C                                                    DW      HCL
8C91 ED 8B 00 04                                      BBUF:   DW      DOCON 1024
                                                      
8C95 85 42 2F 53 43 D2                                HBSCR:  DB      ^5 "B/SC" ^'R'                          ; ***** B/SCR
8C9B 89 8C                                                    DW      HBBUF
8C9D ED 8B 01 00                                      BSCR:   DW      DOCON 1
                                                      
8CA1 87 2B 4F 52 49 47 49 CE                          HPORIG: DB      ^7 "+ORIGI" ^'N'                        ; ***** +ORIGIN
8CA9 95 8C                                                    DW      HBSCR
                                                              ; speed++
8CAB AD 8C                                            PORIG:  DW      PORIG0 ; DOCOL LIT ORIGIN PLUS SEMIS
8CAD 38 B6 80                                         PORIG0: JPS     _POP2           ; R2 = offset
8CB0 38 B9 8C                                                 JPS     _PORIG          ; R3 = &ORIGIN[R2]
8CB3 38 B7 81                                                 JPS     _PUSH3          ; Push result
8CB6 14 1F 85                                                 JPA     NEXT            ; Done
                                                              ;
8CB9 0E 00                                            _PORIG: LDI     <ORIGIN         ; R3 = ORIGIN address
8CBB 16 F4 FE                                                 STA     R3.0            ; :
8CBE 0E 80                                                    LDI     >ORIGIN         ; :
8CC0 16 F5 FE                                                 STA     R3.1            ; :
8CC3 15 F0 FE                                                 LDA     R2.0            ; Get index number
8CC6 30 F4 FE                                                 ADW     R3              ; Compute addr
8CC9 39                                                       RTS                     ; Done
                                                      
                                                      ; ------------------------------
                                                      ; USER VARIABLES
                                                      ;
                                                      ; NOTE: User variables are implemented at static addresses
                                                      
8CCA 83 45 4F CC                                      HEOL:   DB      ^3 "EO" ^'L'                            ; ***** EOL
8CCE A1 8C                                                    DW      HPORIG
8CD0 ED 8B 89 F6                                      EOL:    DW      DOCON _EOL
                                                      
8CD4 85 45 4E 54 45 D2                                HENTER: DB      ^5 "ENTE" ^'R'                          ; ***** ENTER
8CDA CA 8C                                                    DW      HEOL
8CDC ED 8B 8B F6                                      ENTER:  DW      DOCON _ENTER
                                                      
8CE0 83 44 45 CC                                      HDEL:   DB      ^3 "DE" ^'L'                            ; ***** DEL
8CE4 D4 8C                                                    DW      HENTER
8CE6 ED 8B 8D F6                                      DEL:    DW      DOCON _DEL
                                                      
8CEA 82 53 B0                                         HSZERO: DB      ^2 "S" ^'0'                             ; ***** S0
8CED E0 8C                                                    DW      HDEL
8CEF ED 8B 8F F6                                      SZERO:  DW      DOCON _S0
                                                      
8CF3 82 52 B0                                         HRZERO: DB      ^2 "R" ^'0'                             ; ***** R0
8CF6 EA 8C                                                    DW      HSZERO
8CF8 ED 8B 91 F6                                      RZERO:  DW      DOCON _R0
                                                      
8CFC 83 54 49 C2                                      HTIB:   DB      ^3 "TI" ^'B'                            ; ***** TIB
8D00 F3 8C                                                    DW      HRZERO
8D02 ED 8B 93 F6                                      TIB:    DW      DOCON _TIB
                                                      
8D06 85 57 49 44 54 C8                                HWIDTH: DB      ^5 "WIDT" ^'H'                          ; ***** WIDTH
8D0C FC 8C                                                    DW      HTIB
8D0E ED 8B 95 F6                                      WIDTH:  DW      DOCON _WIDTH
                                                      
8D12 87 57 41 52 4E 49 4E C7                          HWARN:  DB      ^7 "WARNIN" ^'G'                        ; ***** WARNING
8D1A 06 8D                                                    DW      HWIDTH
8D1C ED 8B 97 F6                                      WARN:   DW      DOCON _WARN
                                                      
8D20 85 46 45 4E 43 C5                                HFENCE: DB      ^5 "FENC" ^'E'                          ; ***** FENCE
8D26 12 8D                                                    DW      HWARN
8D28 ED 8B 99 F6                                      FENCE:  DW      DOCON _FENCE
                                                      
8D2C 82 44 D0                                         HDP:    DB      ^2 "D" ^'P'                             ; ***** DP
8D2F 20 8D                                                    DW      HFENCE
8D31 ED 8B 9B F6                                      DP:     DW      DOCON _DP
                                                      
8D35 88 56 4F 43 2D 4C 49 4E CB                       HVOCL:  DB      ^8 "VOC-LIN" ^'K'                       ; ***** VOC-LINK
8D3E 2C 8D                                                    DW      HDP
8D40 ED 8B 9D F6                                      VOCL:   DW      DOCON _VOCL
                                                      
8D44 85 46 49 52 53 D4                                HFIRST: DB      ^5 "FIRS" ^'T'                          ; ***** FIRST
8D4A 35 8D                                                    DW      HVOCL
8D4C ED 8B 9F F6                                      FIRST:  DW      DOCON _FIRST
                                                      
8D50 85 4C 49 4D 49 D4                                HLIMIT: DB      ^5 "LIMI" ^'T'                          ; ***** LIMIT
8D56 44 8D                                                    DW      HFIRST
8D58 ED 8B A1 F6                                      LIMIT:  DW      DOCON _LIMIT
                                                      
8D5C 83 42 4C CB                                      HBLK:   DB      ^3 "BL" ^'K'                            ; ***** BLK
8D60 50 8D                                                    DW      HLIMIT
8D62 ED 8B A7 F6                                      BLK:    DW      DOCON _BLK
                                                      
8D66 82 49 CE                                         HIN:    DB      ^2 "I" ^'N'                             ; ***** IN
8D69 5C 8D                                                    DW      HBLK
8D6B ED 8B A9 F6                                      IN:     DW      DOCON _IN
                                                      
8D6F 83 4F 55 D4                                      HOUT:   DB      ^3 "OU" ^'T'                            ; ***** OUT
8D73 66 8D                                                    DW      HIN
8D75 ED 8B AB F6                                      OUT:    DW      DOCON _OUT
                                                      
8D79 83 53 43 D2                                      HSCR:   DB      ^3 "SC" ^'R'                            ; ***** SCR
8D7D 6F 8D                                                    DW      HOUT
8D7F ED 8B AD F6                                      SCR:    DW      DOCON _SCR
                                                      
8D83 86 4F 46 46 53 45 D4                             HOFFSE: DB      ^6 "OFFSE" ^'T'                         ; ***** OFFSET
8D8A 79 8D                                                    DW      HSCR
8D8C ED 8B AF F6                                      OFFSE:  DW      DOCON _OFFSE
                                                      
8D90 87 43 4F 4E 54 45 58 D4                          HCONT:  DB      ^7 "CONTEX" ^'T'                        ; ***** CONTEXT
8D98 83 8D                                                    DW      HOFFSE
8D9A ED 8B B1 F6                                      CONT:   DW      DOCON _CONT
                                                      
8D9E 87 43 55 52 52 45 4E D4                          HCURR:  DB      ^7 "CURREN" ^'T'                        ; ***** CURRENT
8DA6 90 8D                                                    DW      HCONT
8DA8 ED 8B B3 F6                                      CURR:   DW      DOCON _CURR
                                                      
8DAC 85 53 54 41 54 C5                                HSTATE: DB      ^5 "STAT" ^'E'                          ; ***** STATE
8DB2 9E 8D                                                    DW      HCURR
8DB4 ED 8B B5 F6                                      STATE:  DW      DOCON _STATE
                                                      
8DB8 84 42 41 53 C5                                   HBASE:  DB      ^4 "BAS" ^'E'                           ; ***** BASE
8DBD AC 8D                                                    DW      HSTATE
8DBF ED 8B B7 F6                                      BASE:   DW      DOCON _BASE
                                                      
8DC3 83 44 50 CC                                      HDPL:   DB      ^3 "DP" ^'L'                            ; ***** DPL
8DC7 B8 8D                                                    DW      HBASE
8DC9 ED 8B B9 F6                                      DPL:    DW      DOCON _DPL
                                                      
8DCD 83 46 4C C4                                      HFLD:   DB      ^3 "FL" ^'D'                            ; ***** FLD
8DD1 C3 8D                                                    DW      HDPL
8DD3 ED 8B BB F6                                      FLD:    DW      DOCON _FLD
                                                      
8DD7 83 43 53 D0                                      HCSP:   DB      ^3 "CS" ^'P'                            ; ***** CSP
8DDB CD 8D                                                    DW      HFLD
8DDD ED 8B BD F6                                      CSP:    DW      DOCON _CSP
                                                      
8DE1 82 52 A3                                         HRNUM:  DB      ^2 "R" ^'#'                             ; ***** R#
8DE4 D7 8D                                                    DW      HCSP
8DE6 ED 8B BF F6                                      RNUM:   DW      DOCON _RNUM
                                                      
8DEA 83 48 4C C4                                      HHLD:   DB      ^3 "HL" ^'D'                            ; ***** HLD
8DEE E1 8D                                                    DW      HRNUM
8DF0 ED 8B C1 F6                                      HLD:    DW      DOCON _HLD
                                                      
8DF4 83 55 53 C5                                      HUSE:   DB      ^3 "US" ^'E'                            ; ***** USE
8DF8 EA 8D                                                    DW      HHLD
8DFA ED 8B C3 F6                                      USE:    DW      DOCON _USE
                                                      
8DFE 84 50 52 45 D6                                   HPREV:  DB      ^4 "PRE" ^'V'                           ; ***** PREV
8E03 F4 8D                                                    DW      HUSE
8E05 ED 8B C5 F6                                      PREV:   DW      DOCON _PREV
                                                      
8E09 84 42 41 4E CB                                   HBANK:  DB      ^4 "BAN" ^'K'                           ; ***** BANK
8E0E FE 8D                                                    DW      HPREV
8E10 ED 8B C7 F6                                      BANK:   DW      DOCON _BANK
                                                      
8E14 84 46 43 4C CB                                   HFCLK:  DB      ^4 "FCL" ^'K'                          ; ***** FLCK
8E19 09 8E                                                    DW      HBANK
8E1B ED 8B C9 F6                                      FCLK:   DW      DOCON CLK0
                                                      
                                                      ; END OF USER VARIABLES
                                                      ; ------------------------------
                                                      
8E1F 82 3E BE                                         HRSHFT: DB      ^2 ">" ^'>'                             ; ***** >>
8E22 14 8E                                                    DW      HFCLK
8E24 26 8E                                            RSHFT:  DW      RSHFT0
8E26 38 03 81                                         RSHFT0: JPS     _POP21
8E29 15 ED FE                                         RSHF10: LDA     R1.1
8E2C 07                                                       LSR
8E2D 16 ED FE                                                 STA     R1.1
8E30 15 EC FE                                                 LDA     R1.0
8E33 08                                                       ROR
8E34 16 EC FE                                                 STA     R1.0
8E37 27 F0 FE                                                 DEB     R2.0
8E3A 3A 29 8E                                                 BNE     RSHF10
8E3D 14 0D 85                                                 JPA     PUSH
                                                      
8E40 82 3C BC                                         HLSHFT: DB      ^2 "<" ^'<'                             ; ***** <<
8E43 1F 8E                                                    DW      HRSHFT
8E45 47 8E                                            LSHFT:  DW      LSHFT0
8E47 38 03 81                                         LSHFT0: JPS     _POP21
8E4A 15 EC FE                                         LSHF10: LDA     R1.0
8E4D 05                                                       LSL
8E4E 16 EC FE                                                 STA     R1.0
8E51 15 ED FE                                                 LDA     R1.1
8E54 06                                                       ROL
8E55 16 ED FE                                                 STA     R1.1
8E58 27 F0 FE                                                 DEB     R2.0
8E5B 3A 4A 8E                                                 BNE     LSHF10
8E5E 14 0D 85                                                 JPA     PUSH
                                                      
8E61 82 31 AB                                         HONEP:  DB      ^2 "1" ^'+'                             ; ***** 1+
8E64 40 8E                                                    DW      HLSHFT
8E66 68 8E                                            ONEP:   DW      ONEP0
8E68 38 73 80                                         ONEP0:  JPS     _POP1
8E6B 2E EC FE                                                 INW     R1
8E6E 14 0D 85                                                 JPA     PUSH
                                                      
8E71 82 32 AB                                         HTWOP:  DB      ^2 "2" ^'+'                             ; ***** 2+
8E74 61 8E                                                    DW      HONEP
8E76 78 8E                                            TWOP:   DW      TWOP0
8E78 38 73 80                                         TWOP0:  JPS     _POP1
8E7B 0E 02                                                    LDI     2
8E7D 30 EC FE                                                 ADW     R1
8E80 14 0D 85                                                 JPA     PUSH
                                                      
8E83 84 48 45 52 C5                                   HHERE:  DB      ^4 "HER" ^'E'                           ; ***** HERE
8E88 71 8E                                                    DW      HTWOP
                                                              ; speed++
8E8A 8C 8E                                            HERE:   DW      HERE0 ; DOCOL DP AT SEMIS
8E8C 38 92 8E                                         HERE0:  JPS     _HERE
8E8F 14 1F 85                                                 JPA     NEXT
                                                              ;
8E92 2F E6 FE                                         _HERE:  DEW     SP              ; -(SP) = DP
8E95 15 9C F6                                                 LDA     _DP.1           ; :
8E98 1E E6 FE                                                 STR     SP              ; :
8E9B 2F E6 FE                                                 DEW     SP              ; :
8E9E 15 9B F6                                                 LDA     _DP.0           ; :
8EA1 1E E6 FE                                                 STR     SP              ; :
8EA4 39                                                       RTS                     ; Done
                                                      
8EA5 85 41 4C 4C 4F D4                                HALLOT: DB      ^5 "ALLO" ^'T'                          ; ***** ALLOT
8EAB 83 8E                                                    DW      HHERE
                                                              ; speed++
8EAD AF 8E                                            ALLOT:  DW      ALLOT0 ; DOCOL DP PSTOR SEMIS
8EAF 38 B5 8E                                         ALLOT0: JPS     _ALLOT
8EB2 14 1F 85                                                 JPA     NEXT
                                                              ;
8EB5 38 B6 80                                         _ALLOT: JPS     _POP2           ; R2 = increment
8EB8 0E 9B                                                    LDI     <_DP            ; R3 = addr of DP
8EBA 16 F4 FE                                                 STA     R3.0            ; :
8EBD 0E F6                                                    LDI     >_DP            ; :
8EBF 16 F5 FE                                                 STA     R3.1            ; :
8EC2 38 F1 8A                                                 JPS     _PSTO3          ; (R3) += R2
8EC5 39                                                       RTS
                                                      
8EC6 81 AC                                            HCOMMA: DB      ^1 ^','                                 ; ***** ,
8EC8 A5 8E                                                    DW      HALLOT
                                                              ; speed++
8ECA CC 8E                                            COMMA:  DW      COMMA0 ; DOCOL HERE STORE TWO ALLOT SEMIS
8ECC 38 D2 8E                                         COMMA0: JPS     _COMMA
8ECF 14 1F 85                                                 JPA     NEXT
                                                              ;
8ED2 38 92 8E                                         _COMMA: JPS     _HERE           ; HERE
8ED5 38 70 8B                                                 JPS     _STORE          ; STORE
8ED8 2C EC FE                                                 CLW     R1              ; 2 ALLOT
8EDB 0E 02                                                    LDI     2               ; :
8EDD 30 EC FE                                                 ADW     R1              ; :
8EE0 38 7B 81                                                 JPS     _PUSH1          ; :
8EE3 38 B5 8E                                                 JPS     _ALLOT          ; :
8EE6 39                                                       RTS                     ; Done
                                                      
8EE7 81 AD                                            HSUB:   DB      ^1 ^'-'                                 ; ***** -
8EE9 C6 8E                                                    DW      HCOMMA
                                                              ; speed++
8EEB ED 8E                                            SUB:    DW      SUB0 ; DOCOL MINUS PLUS SEMIS
8EED 38 03 81                                         SUB0:   JPS     _POP21          ; Get arguments
8EF0 38 F6 8E                                                 JPS     _SUB            ; Subtract
8EF3 14 0D 85                                                 JPA     PUSH            ; Done
                                                              ;
8EF6 15 EC FE                                         _SUB:   LDA     R1.0            ; LSB
8EF9 18 F0 FE                                                 SBA     R2.0            ; :
8EFC 16 EC FE                                                 STA     R1.0            ; :
8EFF 15 ED FE                                                 LDA     R1.1            ; MSB
8F02 1B F1 FE                                                 SCA     R2.1            ; :
8F05 16 ED FE                                                 STA     R1.1            ; :
8F08 39                                                       RTS                     ; Done
                                                      
8F09 81 BD                                            HEQUAL: DB      ^1 ^'='                                 ; ***** =
8F0B E7 8E                                                    DW      HSUB
                                                              ; speed++
8F0D 0F 8F                                            EQUAL:  DW      EQUAL0 ; DOCOL SUB ZEQU SEMIS
8F0F 38 03 81                                         EQUAL0: JPS     _POP21
8F12 38 F6 8E                                                 JPS     _SUB
8F15 38 5B 89                                                 JPS     _ZEQU
8F18 14 0D 85                                                 JPA     PUSH
                                                      
8F1B 81 BC                                            HLESS:  DB      ^1 ^'<'                                 ; ***** <
8F1D 09 8F                                                    DW      HEQUAL
                                                              ; speed++
8F1F 21 8F                                            LESS:   DW      LESS0 ; DOCOL SUB ZLESS SEMIS
8F21 38 03 81                                         LESS0:  JPS     _POP21
8F24 38 F6 8E                                                 JPS     _SUB
8F27 38 86 89                                                 JPS     _ZLESS
8F2A 14 0D 85                                                 JPA     PUSH
                                                      
8F2D 81 BE                                            HGREAT: DB      ^1 ^'>'                                 ; ***** >
8F2F 1B 8F                                                    DW      HLESS
                                                              ; speed++
8F31 33 8F                                            GREAT:  DW      GREAT0 ; DOCOL SWAP LESS SEMIS
8F33 38 5B 8A                                         GREAT0: JPS     _SWAP
8F36 14 21 8F                                                 JPA     LESS0
                                                      
8F39 83 52 4F D4                                      HROT:   DB      ^3 "RO" ^'T'                            ; ***** ROT
8F3D 2D 8F                                                    DW      HGREAT
8F3F 41 8F                                            ROT:    DW      ROT0
8F41 38 00 81                                         ROT0:   JPS     _POP321
8F44 38 99 81                                                 JPS     _PUSH2
8F47 38 B7 81                                                 JPS     _PUSH3
8F4A 14 0D 85                                                 JPA     PUSH
                                                      
8F4D 85 53 50 41 43 C5                                HSPACE: DB      ^5 "SPAC" ^'E'                          ; ***** SPACE
8F53 39 8F                                                    DW      HROT
8F55 A5 8B 7B 8C 7A 9D F5 88                          SPACE:  DW      DOCOL BL EMIT SEMIS
                                                      
8F5D 84 2D 44 55 D0                                   HDDUP:  DB      ^4 "-DU" ^'P'                           ; ***** -DUP
8F62 4D 8F                                                    DW      HSPACE
                                                              ; speed++
8F64 66 8F                                            DDUP:   DW      DDUP0 ; DOCOL DUP ZBRAN nnn DUP SEMIS
8F66 38 6C 8F                                         DDUP0:  JPS     _DDUP
8F69 14 1F 85                                                 JPA     NEXT
                                                              ;
8F6C 38 6C 80                                         _DDUP:  JPS     _GET1
8F6F 15 EC FE                                                 LDA     R1.0
8F72 11 00                                                    CPI     0
8F74 3A 80 8F                                                 BNE     DDUP10
8F77 15 ED FE                                                 LDA     R1.1
8F7A 11 00                                                    CPI     0
8F7C 3A 80 8F                                                 BNE     DDUP10
8F7F 39                                                       RTS
8F80 38 7B 81                                         DDUP10: JPS     _PUSH1
8F83 39                                                       RTS
                                                      
8F84 88 54 52 41 56 45 52 53 C5                       HTRAV:  DB      ^8 "TRAVERS" ^'E'                       ; ***** TRAVERSE
8F8D 5D 8F                                                    DW      HDDUP
8F8F A5 8B 53 8A                                      TRAV:   DW      DOCOL SWAP
8F93 22 8A 9D 89 97 85 7F 00                          TRAV10: DW      OVER PLUS LIT 0x7F
8F9B 22 8A 53 8B 1F 8F DB 85 F0 FF                            DW      OVER CAT LESS ZBRAN +TRAV10
8FA5 53 8A 3E 8A F5 88                                        DW      SWAP DROP SEMIS
                                                      
8FAB 86 4C 41 54 45 53 D4                             HLATES: DB      ^6 "LATES" ^'T'                         ; ***** LATEST
8FB2 84 8F                                                    DW      HTRAV
8FB4 A5 8B A8 8D 3C 8B 3C 8B F5 88                    LATES:  DW      DOCOL CURR AT AT SEMIS
                                                      
8FBE 83 4C 46 C1                                      HLFA:   DB      ^3 "LF" ^'A'                            ; ***** LFA
8FC2 AB 8F                                                    DW      HLATES
8FC4 A5 8B 97 85 04 00 EB 8E F5 88                    LFA:    DW      DOCOL LIT 4 SUB SEMIS
                                                      
8FCE 83 43 46 C1                                      HCFA:   DB      ^3 "CF" ^'A'                            ; ***** CFA
8FD2 BE 8F                                                    DW      HLFA
8FD4 A5 8B 6A 8C EB 8E F5 88                          CFA:    DW      DOCOL TWO SUB SEMIS
                                                      
8FDC 83 4E 46 C1                                      HNFA:   DB      ^3 "NF" ^'A'                            ; ***** NFA
8FE0 CE 8F                                                    DW      HCFA
8FE2 A5 8B 97 85 05 00 EB 8E 97 85 FF FF 8F 8F F5 88  NFA:    DW      DOCOL LIT 5 SUB LIT -1 TRAV SEMIS
                                                      
8FF2 83 50 46 C1                                      HPFA:   DB      ^3 "PF" ^'A'                            ; ***** PFA
8FF6 DC 8F                                                    DW      HNFA
8FF8 A5 8B 62 8C 8F 8F 97 85 05 00 9D 89 F5 88        PFA:    DW      DOCOL ONE TRAV LIT 5 PLUS SEMIS
                                                      
                                                      ; ------------------------------
                                                      ; COMPILE TIME CHECKS
                                                      
9006 84 21 43 53 D0                                   HSCSP:  DB      ^4 "!CS" ^'P'                           ; ***** !CSP
900B F2 8F                                                    DW      HPFA
900D A5 8B 79 88 DD 8D 68 8B F5 88                    SCSP:   DW      DOCOL SPAT CSP STORE SEMIS
                                                      
9017 86 3F 45 52 52 4F D2                             HQERR:  DB      ^6 "?ERRO" ^'R'                         ; ***** ?ERROR
901E 06 90                                                    DW      HSCSP
9020 A5 8B 53 8A DB 85 08 00                          QERR:   DW      DOCOL SWAP ZBRAN +QERR10
9028 19 95 C9 85 04 00                                        DW      ERROR BRAN +QERR20
902E 3E 8A                                            QERR10: DW      DROP
9030 F5 88                                            QERR20: DW      SEMIS
                                                      
9032 85 3F 43 4F 4D D0                                HQCOMP: DB      ^5 "?COM" ^'P'                          ; ***** ?COMP
9038 17 90                                                    DW      HQERR
903A A5 8B B4 8D 3C 8B 50 89 97 85 10 00 20 90 F5 88  QCOMP:  DW      DOCOL STATE AT ZEQU LIT 16 QERR SEMIS
                                                      
904A 85 3F 45 58 45 C3                                HQEXEC: DB      ^5 "?EXE" ^'C'                          ; ***** ?EXEC
9050 32 90                                                    DW      HQCOMP
9052 A5 8B B4 8D 3C 8B 97 85 12 00 20 90 F5 88        QEXEC:  DW      DOCOL STATE AT LIT 18 QERR SEMIS
                                                      
9060 86 3F 50 41 49 52 D3                             HQPAIR: DB      ^6 "?PAIR" ^'S'                         ; ***** ?PAIRS
9067 4A 90                                                    DW      HQEXEC
9069 A5 8B EB 8E 97 85 13 00 20 90 F5 88              QPAIR:  DW      DOCOL SUB LIT 19 QERR SEMIS
                                                      
9075 84 3F 43 53 D0                                   HQCSP:  DB      ^4 "?CS" ^'P'                           ; ***** ?CSP
907A 60 90                                                    DW      HQPAIR
907C A5 8B 79 88 DD 8D 3C 8B EB 8E                    QCSP:   DW      DOCOL SPAT CSP AT SUB
9086 97 85 14 00 20 90 F5 88                                  DW      LIT 20 QERR SEMIS
                                                      
908E 88 3F 4C 4F 41 44 49 4E C7                       HQLOAD: DB      ^8 "?LOADIN" ^'G'                       ; ***** ?LOADING
9097 75 90                                                    DW      HQCSP
9099 A5 8B 62 8D 3C 8B 50 89 97 85 16 00 20 90 F5 88  QLOAD:  DW      DOCOL BLK AT ZEQU LIT 22 QERR SEMIS
                                                      
                                                      ; ------------------------------
                                                      ; COMPILER WORDS
                                                      
90A9 87 43 4F 4D 50 49 4C C5                          HCOMP:  DB      ^7 "COMPIL" ^'E'                        ; ***** COMPILE
90B1 8E 90                                                    DW      HQLOAD
90B3 A5 8B 3A 90 37 89 6B 8A                          COMP:   DW      DOCOL QCOMP FROMR DUP
90BB 76 8E 27 89 3C 8B CA 8E F5 88                            DW      TWOP TOR AT COMMA SEMIS
                                                      
90C5 C1 DB                                            HLBRAC: DB      ^^1 ^'['                                ; ***** [
90C7 A9 90                                                    DW      HCOMP
90C9 A5 8B 5A 8C B4 8D 68 8B F5 88                    LBRAC:  DW      DOCOL ZERO STATE STORE SEMIS
                                                      
90D3 81 DD                                            HRBRAC: DB      ^1 ^']'                                 ; ***** ]
90D5 C5 90                                                    DW      HLBRAC
90D7 A5 8B 97 85 C0 00 B4 8D 68 8B F5 88              RBRAC:  DW      DOCOL LIT 0xC0 STATE STORE SEMIS
                                                      
90E3 86 53 4D 55 44 47 C5                             HSMUDG: DB      ^6 "SMUDG" ^'E'                         ; ***** SMUDGE
90EA D3 90                                                    DW      HRBRAC
90EC A5 8B B4 8F 97 85 20 00 04 8B F5 88              SMUDG:  DW      DOCOL LATES LIT 0x20 TOGGL SEMIS
                                                      
90F8 83 48 45 D8                                      HHEX:   DB      ^3 "HE" ^'X'                            ; ***** HEX
90FC E3 90                                                    DW      HSMUDG
90FE A5 8B 97 85 10 00 BF 8D 68 8B F5 88              HEX:    DW      DOCOL LIT 16 BASE STORE SEMIS
                                                      
910A 87 44 45 43 49 4D 41 CC                          HDEC:   DB      ^7 "DECIMA" ^'L'                        ; ***** DECIMAL
9112 F8 90                                                    DW      HHEX
9114 A5 8B 97 85 0A 00 BF 8D 68 8B F5 88              DEC:    DW      DOCOL LIT 10 BASE STORE SEMIS
                                                      
9120 85 4F 43 54 41 CC                                HOCTAL: DB      ^5 "OCTA" ^'L'                          ; ***** OCTAL
9126 0A 91                                                    DW      HDEC
9128 A5 8B 97 85 08 00 BF 8D 68 8B F5 88              OCTAL:  DW      DOCOL LIT 8 BASE STORE SEMIS
                                                      
9134 87 28 3B 43 4F 44 45 A9                          HPSCOD: DB      ^7 "(;CODE" ^')'                        ; ***** (;CODE)
913C 20 91                                                    DW      HOCTAL
913E A5 8B 37 89 B4 8F F8 8F D4 8F 68 8B F5 88        PSCOD:  DW      DOCOL FROMR LATES PFA CFA STORE SEMIS
                                                      
914C 87 3C 42 55 49 4C 44 D3                          HBUILD: DB      ^7 "<BUILD" ^'S'                        ; ***** <BUILDS
9154 34 91                                                    DW      HPSCOD
9156 A5 8B 5A 8C E3 8B F5 88                          BUILD:  DW      DOCOL ZERO CON SEMIS
                                                      
915E 85 44 4F 45 53 BE                                HDOES:  DB      ^5 "DOES" ^'>'                          ; ***** DOES>
9164 4C 91                                                    DW      HBUILD
9166 A5 8B 37 89 B4 8F F8 8F 68 8B 3E 91              DOES:   DW      DOCOL FROMR LATES PFA STORE PSCOD
9172 2F E8 FE                                         DODOE:  DEW     RP              ; -(RP) = IP
9175 15 E3 FE                                                 LDA     IP.1            ; :
9178 1E E8 FE                                                 STR     RP              ; :
917B 2F E8 FE                                                 DEW     RP              ; :
917E 15 E2 FE                                                 LDA     IP.0            ; :
9181 1E E8 FE                                                 STR     RP              ; :
9184 1D E4 FE                                                 LDR     WA              ; IP = (WA)+
9187 16 E2 FE                                                 STA     IP.0            ; :
918A 2E E4 FE                                                 INW     WA              ; :
918D 1D E4 FE                                                 LDR     WA              ; :
9190 16 E3 FE                                                 STA     IP.1            ; :
9193 2E E4 FE                                                 INW     WA              ; :
9196 2F E6 FE                                                 DEW     SP              ; -(SP) = WA
9199 15 E5 FE                                                 LDA     WA.1            ; :
919C 1E E6 FE                                                 STR     SP              ; :
919F 2F E6 FE                                                 DEW     SP              ; :
91A2 15 E4 FE                                                 LDA     WA.0            ; :
91A5 1E E6 FE                                                 STR     SP              ; :
91A8 14 1F 85                                                 JPA     NEXT            ; Done
                                                      
                                                      ; ------------------------------
                                                      ; MISC WORDS RELATED TO PRINTING
                                                      
91AB 85 43 4F 55 4E D4                                HCOUNT: DB      ^5 "COUN" ^'T'                          ; ***** COUNT
91B1 5E 91                                                    DW      HDOES
91B3 A5 8B 6B 8A 66 8E 53 8A 53 8B F5 88              COUNT:  DW      DOCOL DUP ONEP SWAP CAT SEMIS
                                                      
91BF 84 54 59 50 C5                                   HTYPE:  DB      ^4 "TYP" ^'E'                           ; ***** TYPE
91C4 AB 91                                                    DW      HCOUNT
91C6 A5 8B 64 8F DB 85 18 00                          TYPE:   DW      DOCOL DDUP ZBRAN +TYPE20
91CE 22 8A 9D 89 53 8A 71 86                                  DW      OVER PLUS SWAP XDO
91D6 83 86 53 8B 7A 9D 5C 86 F8 FF                    TYPE10: DW      I CAT EMIT XLOOP +TYPE10
91E0 C9 85 04 00                                              DW      BRAN +TYPE30
91E4 3E 8A                                            TYPE20: DW      DROP
91E6 F5 88                                            TYPE30: DW      SEMIS
                                                      
91E8 89 2D 54 52 41 49 4C 49 4E C7                    HDTRAI: DB      ^9 "-TRAILIN" ^'G'                      ; ***** -TRAILING
91F2 BF 91                                                    DW      HTYPE
91F4 A5 8B 6B 8A 5A 8C 71 86                          DTRAI:  DW      DOCOL DUP ZERO XDO
91FC 22 8A 22 8A 9D 89 62 8C EB 8E                    DTRA10: DW      OVER OVER PLUS ONE SUB
9206 53 8B 7B 8C EB 8E DB 85 08 00                            DW      CAT BL SUB ZBRAN +DTRA20
9210 14 89 C9 85 06 00                                        DW      LEAVE BRAN +DTRA30
9216 62 8C EB 8E                                      DTRA20: DW      ONE SUB
921A 5C 86 E0 FF                                      DTRA30: DW      XLOOP +DTRA10
921E F5 88                                                    DW      SEMIS
                                                      
9220 84 28 2E 22 A9                                   HPDOTQ: DB      ^4 "(." '"' ^')'                        ; ***** (.")
9225 E8 91                                                    DW      HDTRAI
9227 A5 8B 43 89 B3 91 6B 8A 66 8E                    PDOTQ:  DW      DOCOL R COUNT DUP ONEP
9231 37 89 9D 89 27 89 C6 91 F5 88                            DW      FROMR PLUS TOR TYPE SEMIS
                                                      
923B C2 2E A2                                         HDOTQ:  DB      ^^2 "." ^'"'                            ; ***** ."
923E 20 92                                                    DW      HPDOTQ
9240 A5 8B 97 85 22 00 B4 8D 3C 8B DB 85 14 00        DOTQ:   DW      DOCOL LIT '"' STATE AT ZBRAN +DOTQ10
924E B3 90 27 92 AB 93 8A 8E 53 8B 66 8E                      DW      COMP PDOTQ WORD HERE CAT ONEP
925A AD 8E C9 85 0A 00                                        DW      ALLOT BRAN +DOTQ20
9260 AB 93 8A 8E B3 91 C6 91                          DOTQ10: DW      WORD HERE COUNT TYPE
9268 F5 88                                            DOTQ20: DW      SEMIS
                                                      
                                                      ; ------------------------------
                                                      ; OUTER INTERPRETER
                                                      
926A 88 28 45 58 50 45 43 54 A9                       HPEXPE: DB      ^8 "(EXPECT" ^')'                       ; ***** (EXPECT)
9273 3B 92                                                    DW      HDOTQ
9275 A5 8B                                            PEXPE:  DW      DOCOL
9277 22 8A 9D 89 22 8A 71 86                          PEXP05: DW      OVER PLUS OVER XDO
927F B3 9D 6B 8A E6 8C 3C 8B 0D 8F DB 85 2A 00        PEXP10: DW      KEY DUP DEL AT EQUAL ZBRAN +PEXP20
928D 3E 8A 6B 8A 83 86 0D 8F 6B 8A 37 89 6A 8C EB 8E          DW      DROP DUP I EQUAL DUP FROMR TWO SUB
929D 9D 89 27 89 DB 85 0A 00                                  DW      PLUS TOR ZBRAN +PEXP60
92A5 97 85 07 00 C9 85 06 00                                  DW      LIT CH_BEL BRAN +PEXP70
92AD 97 85 08 00                                      PEXP60: DW      LIT CH_BSP
92B1 C9 85 28 00                                      PEXP70: DW      BRAN +PEXP30
92B5 6B 8A DC 8C 3C 8B 0D 8F DB 85 0E 00              PEXP20: DW      DUP ENTER AT EQUAL ZBRAN +PEXP40
92C1 14 89 3E 8A 7B 8C 5A 8C C9 85 04 00                      DW      LEAVE DROP BL ZERO BRAN +PEXP50
92CD 6B 8A                                            PEXP40: DW      DUP
92CF 83 86 7F 8B 5A 8C 83 86 66 8E 68 8B              PEXP50: DW      I CSTOR ZERO I ONEP STORE
92DB 7A 9D 5C 86 A0 FF                                PEXP30: DW      EMIT XLOOP +PEXP10
92E1 3E 8A F5 88                                              DW      DROP SEMIS
                                                      
92E5 85 51 55 45 52 D9                                HQUERY: DB      ^5 "QUER" ^'Y'                          ; ***** QUERY
92EB 6A 92                                                    DW      HPEXPE
92ED A5 8B 02 8D 3C 8B 97 85 50 00 68 9E              QUERY:  DW      DOCOL TIB AT LIT 80 EXPEC
92F9 5A 8C 6B 8D 68 8B F5 88                                  DW      ZERO IN STORE SEMIS
                                                      
9301 C1 80                                            HNULL:  DB      ^^1 ^0                                  ; ***** <the NULL word>
9303 E5 92                                                    DW      HQUERY
9305 A5 8B 62 8D 3C 8B DB 85 26 00                    NULL:   DW      DOCOL BLK AT ZBRAN +NULL20
930F 62 8C 62 8D E3 8A 5A 8C 6B 8D 68 8B                      DW      ONE BLK PSTOR ZERO IN STORE
931B 62 8D 3C 8B 9D 8C 8B 99 50 89 DB 85 08 00                DW      BLK AT BSCR MOD ZEQU ZBRAN +NULL10
9329 52 90 37 89 3E 8A                                        DW      QEXEC FROMR DROP
932F C9 85 06 00                                      NULL10: DW      BRAN +NULL30
9333 37 89 3E 8A                                      NULL20: DW      FROMR DROP
9337 F5 88                                            NULL30: DW      SEMIS
                                                      
9339 84 46 49 4C CC                                   HFILL:  DB      ^4 "FIL" ^'L'                           ; ***** FILL
933E 01 93                                                    DW      HNULL
9340 A5 8B 53 8A 27 89 22 8A 7F 8B 6B 8A              FILL:   DW      DOCOL SWAP TOR OVER CSTOR DUP
934C 66 8E 37 89 62 8C EB 8E BF 87 F5 88                      DW      ONEP FROMR ONE SUB CMOVE SEMIS
                                                      
9358 85 45 52 41 53 C5                                HERASE: DB      ^5 "ERAS" ^'E'                          ; ***** ERASE
935E 39 93                                                    DW      HFILL
9360 A5 8B 5A 8C 40 93 F5 88                          ERASE:  DW      DOCOL ZERO FILL SEMIS
                                                      
9368 86 42 4C 41 4E 4B D3                             HBLANK: DB      ^6 "BLANK" ^'S'                         ; ***** BLANKS
936F 58 93                                                    DW      HERASE
9371 A5 8B 7B 8C 40 93 F5 88                          BLANK:  DW      DOCOL BL FILL SEMIS
                                                      
9379 84 48 4F 4C C4                                   HHOLD:  DB      ^4 "HOL" ^'D'                           ; ***** HOLD
937E 68 93                                                    DW      HBLANK
9380 A5 8B 97 85 FF FF F0 8D E3 8A                    HOLD:   DW      DOCOL LIT -1 HLD PSTOR
938A F0 8D 3C 8B 7F 8B F5 88                                  DW      HLD AT CSTOR SEMIS
                                                      
9392 83 50 41 C4                                      HPAD:   DB      ^3 "PA" ^'D'                            ; ***** PAD
9396 79 93                                                    DW      HHOLD
9398 A5 8B 8A 8E 97 85 54 00 9D 89 F5 88              PAD:    DW      DOCOL HERE LIT 84 PLUS SEMIS
                                                      
93A4 84 57 4F 52 C4                                   HWORD:  DB      ^4 "WOR" ^'D'                           ; ***** WORD
93A9 92 93                                                    DW      HPAD
93AB A5 8B 62 8D 3C 8B DB 85 0C 00                    WORD:   DW      DOCOL BLK AT ZBRAN +WORD10
93B5 62 8D 3C 8B FB 9A C9 85 06 00                            DW      BLK AT BLOCK BRAN +WORD20
93BF 02 8D 3C 8B                                      WORD10: DW      TIB AT
93C3 6B 8D 3C 8B 9D 89 53 8A 60 87                    WORD20: DW      IN AT PLUS SWAP ENCL
93CD 8A 8E 97 85 22 00 71 93 6B 8D E3 8A                      DW      HERE LIT 34 BLANK IN PSTOR
93D9 22 8A EB 8E 27 89 43 89 8A 8E 7F 8B 9D 89                DW      OVER SUB TOR R HERE CSTOR PLUS
93E7 8A 8E 66 8E 37 89 BF 87 F5 88                            DW      HERE ONEP FROMR CMOVE SEMIS
                                                      
93F1 88 28 4E 55 4D 42 45 52 A9                       HPNUMB: DB      ^8 "(NUMBER" ^')'                       ; ***** (NUMBER)
93FA A4 93                                                    DW      HWORD
93FC A5 8B                                            PNUMB:  DW      DOCOL
93FE 66 8E 6B 8A 27 89 53 8B                          PNUM10: DW      ONEP DUP TOR CAT
9406 BF 8D 3C 8B 93 86 DB 85 2C 00                            DW      BASE AT DIGIT ZBRAN +PNUM30
9410 53 8A BF 8D 3C 8B EB 87 3E 8A 3F 8F BF 8D 3C 8B          DW      SWAP BASE AT USTAR DROP ROT BASE AT
9420 EB 87 AD 89 C9 8D 3C 8B 66 8E DB 85 08 00                DW      USTAR DPLUS DPL AT ONEP ZBRAN +PNUM20
942E 62 8C C9 8D E3 8A                                        DW      ONE DPL PSTOR
9434 37 89 C9 85 C6 FF                                PNUM20: DW      FROMR BRAN +PNUM10
943A 37 89 F5 88                                      PNUM30: DW      FROMR SEMIS
                                                      
943E 86 4E 55 4D 42 45 D2                             HNUMB:  DB      ^6 "NUMBE" ^'R'                         ; ***** NUMBER
9445 F1 93                                                    DW      HPNUMB
9447 A5 8B 5A 8C 5A 8C 3F 8F 6B 8A 66 8E 53 8B        NUMB:   DW      DOCOL ZERO ZERO ROT DUP ONEP CAT
9455 97 85 2D 00 0D 8F 6B 8A 27 89 EB 8E 97 85 FF FF          DW      LIT '-' EQUAL DUP TOR SUB LIT -1
9465 C9 8D 68 8B FC 93 6B 8A                          NUMB10: DW      DPL STORE PNUMB DUP
946D 53 8B 7B 8C EB 8E DB 85 16 00                            DW      CAT BL SUB ZBRAN +NUMB20
9477 6B 8A 53 8B 97 85 2E 00 EB 8E                            DW      DUP CAT LIT '.' SUB
9481 5A 8C 20 90 5A 8C C9 85 DC FF                            DW      ZERO QERR ZERO BRAN +NUMB10
948B 3E 8A 37 89 DB 85 04 00                          NUMB20: DW      DROP FROMR ZBRAN +NUMB30
9493 D7 89                                                    DW      DMINU
9495 F5 88                                            NUMB30: DW      SEMIS
                                                      
9497 85 2D 46 49 4E C4                                HDFIND: DB      ^5 "-FIN" ^'D'                          ; ***** -FIND
949D 3E 94                                                    DW      HNUMB
949F A5 8B 7B 8C AB 93 8A 8E B3 91 CF 94              DFIND:  DW      DOCOL BL WORD HERE COUNT UPPER
94AB 8A 8E 9A 8D 3C 8B 3C 8B CF 86                            DW      HERE CONT AT AT PFIND
94B5 6B 8A 50 89 DB 85 0A 00                                  DW      DUP ZEQU ZBRAN +DFIN10
94BD 3E 8A 8A 8E B4 8F CF 86                                  DW      DROP HERE LATES PFIND
94C5 F5 88                                            DFIN10: DW      SEMIS
                                                      
94C7 85 55 50 50 45 D2                                HUPPER: DB      ^5 "UPPE" ^'R'                          ; ***** UPPER
94CD 97 94                                                    DW      HDFIND
94CF A5 8B 22 8A 9D 89 53 8A 71 86                    UPPER:  DW      DOCOL OVER PLUS SWAP XDO
94D9 83 86 53 8B 97 85 60 00 31 8F                    UPPE10: DW      I CAT LIT 0x60 GREAT
94E3 83 86 53 8B 97 85 7B 00 1F 8F                            DW      I CAT LIT 0x7B LESS
94ED 3F 88 DB 85 0A 00                                        DW      AND ZBRAN +UPPE20
94F3 83 86 97 85 20 00 04 8B                                  DW      I LIT 0x20 TOGGL
94FB 5C 86 DC FF                                      UPPE20: DW      XLOOP +UPPE10
94FF F5 88                                                    DW      SEMIS
                                                      
9501 87 28 41 42 4F 52 54 A9                          HPABOR: DB      ^7 "(ABORT" ^')'                        ; ***** (ABORT)
9509 C7 94                                                    DW      HUPPER
950B A5 8B 7F 97 F5 88                                PABOR:  DW      DOCOL ABORT SEMIS
                                                      
9511 85 45 52 52 4F D2                                HERROR: DB      ^5 "ERRO" ^'R'                          ; ***** ERROR
9517 01 95                                                    DW      HPABOR
9519 A5 8B 1C 8D 3C 8B 7B 89 DB 85 04 00              ERROR:  DW      DOCOL WARN AT ZLESS ZBRAN +ERRO10
9525 0B 95                                                    DW      PABOR
9527 8A 8E B3 91 C6 91 27 92                          ERRO10: DW      HERE COUNT TYPE PDOTQ
952F 03 20 3F 20                                              DB      3 32 '?' 32
9533 90 9B 90 88 6B 8D 3C 8B 62 8D 3C 8B 51 97 F5 88          DW      MESS SPSTO IN AT BLK AT QUIT SEMIS
                                                      
9543 83 49 44 AE                                      HIDDOT: DB      ^3 "ID" ^'.'                            ; ***** ID.
9547 11 95                                                    DW      HERROR
9549 A5 8B 98 93 7B 8C 97 85 5F 00 40 93              IDDOT:  DW      DOCOL PAD BL LIT 95 FILL
9555 6B 8A F8 8F C4 8F 22 8A EB 8E 98 93 53 8A BF 87          DW      DUP PFA LFA OVER SUB PAD SWAP CMOVE
9565 98 93 B3 91 97 85 1F 00 3F 88                            DW      PAD COUNT LIT 31 AND
956F 22 8A 22 8A 62 8C EB 8E 9D 89 6B 8A 53 8B                DW      OVER OVER ONE SUB PLUS DUP CAT
957D 97 85 7F 00 3F 88 53 8A 7F 8B                            DW      LIT 0x7F AND SWAP CSTOR
9587 C6 91 55 8F F5 88                                        DW      TYPE SPACE SEMIS
                                                      
958D 86 43 52 45 41 54 C5                             HCREAT: DB      ^6 "CREAT" ^'E'                         ; ***** CREATE
9594 43 95                                                    DW      HIDDOT
9596 A5 8B 9F 94 DB 85 10 00                          CREAT:  DW      DOCOL DFIND ZBRAN +CREA10
959E 3E 8A E2 8F 49 95 97 85 04 00 90 9B 55 8F                DW      DROP NFA IDDOT LIT 4 MESS SPACE
95AC 8A 8E 6B 8A 53 8B 0E 8D 3C 8B EA 98 66 8E AD 8E  CREA10: DW      HERE DUP CAT WIDTH AT MIN ONEP ALLOT
95BC 6B 8A 97 85 A0 00 04 8B 8A 8E 62 8C EB 8E                DW      DUP LIT 0xA0 TOGGL HERE ONE SUB
95CA 97 85 80 00 04 8B B4 8F CA 8E A8 8D 3C 8B 68 8B          DW      LIT 0x80 TOGGL LATES COMMA CURR AT STORE
95DA 8A 8E 76 8E CA 8E F5 88                                  DW      HERE TWOP COMMA SEMIS
                                                      
95E2 C9 5B 43 4F 4D 50 49 4C 45 DD                    HBCOMP: DB      ^^9 "[COMPILE" ^']'                     ; ***** [COMPILE]
95EC 8D 95                                                    DW      HCREAT
95EE A5 8B 9F 94 50 89 5A 8C 20 90                    BCOMP:  DW      DOCOL DFIND ZEQU ZERO QERR
95F8 3E 8A D4 8F CA 8E F5 88                                  DW      DROP CFA COMMA SEMIS
                                                      
9600 C7 4C 49 54 45 52 41 CC                          HLITER: DB      ^^7 "LITERA" ^'L'                       ; ***** LITERAL
9608 E2 95                                                    DW      HBCOMP
960A A5 8B B4 8D 3C 8B DB 85 08 00                    LITER:  DW      DOCOL STATE AT ZBRAN +LITE10
9614 B3 90 97 85 CA 8E                                        DW      COMP LIT COMMA
961A F5 88                                            LITE10: DW      SEMIS
                                                      
961C C8 44 4C 49 54 45 52 41 CC                       HDLITE: DB      ^^8 "DLITERA" ^'L'                      ; ***** DLITERAL
9625 00 96                                                    DW      HLITER
9627 A5 8B B4 8D 3C 8B DB 85 08 00                    DLITE:  DW      DOCOL STATE AT ZBRAN +DLIT10
9631 53 8A 0A 96 0A 96                                        DW      SWAP LITER LITER
9637 F5 88                                            DLIT10: DW      SEMIS
                                                      
9639 82 55 BC                                         HULESS: DB      ^2 "U" ^'<'                             ; ***** U<
963C 1C 96                                                    DW      HDLITE
963E A5 8B 22 8A 22 8A 60 88 7B 89 DB 85 0C 00        ULESS:  DW      DOCOL OVER OVER XOR ZLESS ZBRAN +ULES10
964C 3E 8A 7B 89 50 89 C9 85 06 00                            DW      DROP ZLESS ZEQU BRAN +ULES20
9656 EB 8E 7B 89                                      ULES10: DW      SUB ZLESS
965A F5 88                                            ULES20: DW      SEMIS
                                                      
965C 86 3F 53 54 41 43 CB                             HQSTAC: DB      ^6 "?STAC" ^'K'                         ; ***** ?STACK
9663 39 96                                                    DW      HULESS
9665 A5 8B 79 88 EF 8C 3C 8B 53 8A 3E 96              QSTAC:  DW      DOCOL SPAT SZERO AT SWAP ULESS
9671 62 8C 20 90 79 88 8A 8E 97 85 80 00                      DW      ONE QERR SPAT HERE LIT 128
967D 9D 89 3E 96 6A 8C 20 90 F5 88                            DW      PLUS ULESS TWO QERR SEMIS
                                                      
9687 89 49 4E 54 45 52 50 52 45 D4                    HINTER: DB      ^9 "INTERPRE" ^'T'                      ; ***** INTERPRET
9691 5C 96                                                    DW      HQSTAC
9693 A5 8B                                            INTER:  DW      DOCOL
9695 9F 94 DB 85 1E 00                                INTE10: DW      DFIND ZBRAN +INTE40
969B B4 8D 3C 8B 1F 8F DB 85 0A 00                            DW      STATE AT LESS ZBRAN +INTE20
96A5 D4 8F CA 8E C9 85 06 00                                  DW      CFA COMMA BRAN +INTE30
96AD D4 8F A9 85                                      INTE20: DW      CFA EXEC
96B1 65 96 C9 85 1C 00                                INTE30: DW      QSTAC BRAN +INTE70
96B7 8A 8E 47 94 C9 8D 3C 8B 66 8E DB 85 08 00        INTE40: DW      HERE NUMB DPL AT ONEP ZBRAN +INTE50
96C5 27 96 C9 85 06 00                                        DW      DLITE BRAN +INTE60
96CB 3E 8A 0A 96                                      INTE50: DW      DROP LITER
96CF 65 96                                            INTE60: DW      QSTAC
96D1 C9 85 C2 FF                                      INTE70: DW      BRAN +INTE10
                                                      
96D5 89 49 4D 4D 45 44 49 41 54 C5                    HIMMED: DB      ^9 "IMMEDIAT" ^'E'                      ; ***** IMMEDIATE
96DF 87 96                                                    DW      HINTER
96E1 A5 8B B4 8F 97 85 40 00 04 8B F5 88              IMMED:  DW      DOCOL LATES LIT 0x40 TOGGL SEMIS
                                                      
96ED 8A 56 4F 43 41 42 55 4C 41 52 D9                 HVOCAB: DB      ^10 "VOCABULAR" ^'Y'                    ; ***** VOCABULARY
96F8 D5 96                                                    DW      HIMMED
96FA A5 8B 56 91 97 85 81 A0 CA 8E                    VOCAB:  DW      DOCOL BUILD LIT 0xa081 COMMA
9704 A8 8D 3C 8B D4 8F CA 8E                                  DW      CURR AT CFA COMMA
970C 8A 8E 40 8D 3C 8B CA 8E 40 8D 68 8B 66 91                DW      HERE VOCL AT COMMA VOCL STORE DOES
971A 76 8E 9A 8D 68 8B F5 88                          DOVOC:  DW      TWOP CONT STORE SEMIS
                                                      
9722 8B 44 45 46 49 4E 49 54 49 4F 4E D3              HDEFIN: DB      ^11 "DEFINITION" ^'S'                   ; ***** DEFINITIONS
972E ED 96                                                    DW      HVOCAB
9730 A5 8B 9A 8D 3C 8B A8 8D 68 8B F5 88              DEFIN:  DW      DOCOL CONT AT CURR STORE SEMIS
                                                      
973C 81 A8                                            HPAREN: DB      ^1 ^'('                                 ; ***** (
973E 22 97                                                    DW      HDEFIN
9740 A5 8B 97 85 29 00 AB 93 F5 88                    PAREN:  DW      DOCOL LIT ')' WORD SEMIS
                                                      
974A 84 51 55 49 D4                                   HQUIT:  DB      ^4 "QUI" ^'T'                           ; ***** QUIT
974F 3C 97                                                    DW      HPAREN
9751 A5 8B 5A 8C 62 8D 68 8B C9 90                    QUIT:   DW      DOCOL ZERO BLK STORE LBRAC
975B B2 88 F8 9D ED 92 93 96 B4 8D 3C 8B              QUIT10: DW      RPSTO CR QUERY INTER STATE AT
9767 50 89 DB 85 08 00                                        DW      ZEQU ZBRAN +QUIT20
976D 27 92                                                    DW      PDOTQ
976F 03 20 6F 6B                                              DB      3 32 "ok"
9773 C9 85 E6 FF                                      QUIT20: DW      BRAN +QUIT10
                                                      
9777 85 41 42 4F 52 D4                                HABORT: DB      ^5 "ABOR" ^'T'                          ; ***** ABORT
977D 4A 97                                                    DW      HQUIT
977F A5 8B                                            ABORT:  DW      DOCOL
9781 B2 88 90 88 14 91 55 8F                          ABOR10: DW      RPSTO SPSTO DEC SPACE
9789 97 85 CB F6 3C 8B 97 85 5C 20 EB 8E DB 85 14 00          DW      LIT CLK2 AT LIT MAGIC SUB ZBRAN +ABOR20
9799 F8 9D 27 92                                              DW      CR PDOTQ
979D 0D 4D 69 6E 69 6D 61 6C 2D 46 4F 52 54 48                DB      13 "Minimal-FORTH"
97AB 5A 8C 97 85 CB F6 68 8B 2E A2 30 97 51 97        ABOR20: DW      ZERO LIT CLK2 STORE FORTH DEFIN QUIT
                                                      
                                                      ; INCLUDE         coldwarm.asm
                                                      
                                                      ; ----------------------------------------------------------------------
                                                      ; COLD AND WARM START ENTRY POINTS
                                                      
97B9 0E FE                                            CENT:   LDI     0xFE            ; Initialize Minimal stack pointer
97BB 16 FF FF                                                 STA     0xFFFF          ; :
97BE 0E E6                                                    LDI     <COLD10         ; Start by executing COLD
97C0 16 E2 FE                                                 STA     IP.0            ; :
97C3 0E 97                                                    LDI     >COLD10         ; :
97C5 16 E3 FE                                                 STA     IP.1            ; :
97C8 14 1F 85                                                 JPA     NEXT            ; ... and over to FORTH VM
                                                      
97CB 0E FE                                            WENT:   LDI     0xFE            ; Initialize Minimal stack pointer
97CD 16 FF FF                                                 STA     0xFFFF          ; :
97D0 0E 81                                                    LDI     <ABOR10         ; Start by executing ABORT
97D2 16 E2 FE                                                 STA     IP.0            ; :
97D5 0E 97                                                    LDI     >ABOR10         ; :
97D7 16 E3 FE                                                 STA     IP.1            ; :
97DA 14 1F 85                                                 JPA     NEXT            ; ... and over to FORTH VM
                                                      
97DD 84 43 4F 4C C4                                   HCOLD:  DB      ^4 "COL" ^'D'                           ; ***** COLD
97E2 77 97                                                    DW      HABORT
97E4 A5 8B                                            COLD:   DW      DOCOL
                                                      COLD10: ; Init FORTH registers
97E6 B2 88 90 88 D4 88                                        DW      RPSTO SPSTO UPSTO
                                                              ; Set FORTH vocabulary
97EC 97 85 0C 00 AB 8C 3C 8B                                  DW      LIT 12 PORIG AT
97F4 97 85 06 00 97 85 2E A2 9D 89 68 8B                      DW      LIT 6 LIT FORTH PLUS STORE
                                                              ; Init 12 items (24 bytes) in user area ...
                                                              ; ... with values from boot table
9800 97 85 12 00 AB 8C                                        DW      LIT 18 PORIG
9806 97 85 10 00 AB 8C 3C 8B 97 85 06 00 9D 89                DW      LIT 16 PORIG AT LIT 6 PLUS
9814 97 85 18 00 BF 87                                        DW      LIT 24 CMOVE
                                                              ; Erase disk buffers
981A 97 85 22 00 AB 8C 3C 8B 97 85 24 00 AB 8C 3C 8B          DW      LIT 34 PORIG AT LIT 36 PORIG AT
982A 22 8A EB 8E 60 93                                        DW      OVER SUB ERASE
                                                              ; Initialize some of the user variables
9830 5A 8C 6B 8D 68 8B 5A 8C 75 8D 68 8B                      DW      ZERO IN STORE ZERO OUT STORE
983C 4C 8D 3C 8B FA 8D 68 8B 4C 8D 3C 8B 05 8E 68 8B          DW      FIRST AT USE STORE FIRST AT PREV STORE
                                                              ; Set minimum environment for autoexec of SCR #1
984C 2E A2 30 97 14 91 5A 8C 62 8D 68 8B C9 90 43 9E          DW      FORTH DEFIN DEC ZERO BLK STORE LBRAC UNIX
                                                              ; Try to load ("autoexec") SCR #1
985C 62 8C FB 9A 6B 8A 3C 8B                                  DW      ONE BLOCK DUP AT
9864 97 85 5C 20 0D 8F DB 85 10 00                            DW      LIT MAGIC EQUAL ZBRAN +COLD20
986E 62 8C C8 9B 97 85 5C 20 97 85 CB F6 68 8B                DW      ONE LOAD LIT MAGIC LIT CLK2 STORE
                                                              ; Continue via ABORT
987C 7F 97                                            COLD20: DW      ABORT
                                                      
                                                      ; INCLUDE         math.asm
                                                      
                                                      ; ----------------------------------------------------------------------
                                                      ; MATHEMATICS WORDS
                                                      
987E 84 53 2D 3E C4                                   HSTOD:  DB      ^4 "S->" ^'D'                           ; ***** S->D
9883 DD 97                                                    DW      HCOLD
9885 87 98                                            STOD:   DW      STOD0
9887 2C EC FE                                         STOD0:  CLW     R1              ; Assume high word zero
988A 2E E6 FE                                                 INW     SP              ; Get operand high byte
988D 1D E6 FE                                                 LDR     SP              ; :
9890 11 00                                                    CPI     0               ; Negative?
9892 3F 9B 98                                                 BMI     STOD10          ; YES: Push 0xFFFF
9895 2F E6 FE                                                 DEW     SP              ; :
9898 14 0D 85                                                 JPA     PUSH            ; NO: Push 0x0000
989B 2F E6 FE                                         STOD10: DEW     SP              ; :
989E 2F EC FE                                                 DEW     R1              ; Make 0x0000 into 0xFFFF
98A1 14 0D 85                                                 JPA     PUSH            ; Done
                                                      
98A4 82 2B AD                                         HPM:    DB      ^2 "+" ^'-'                             ; ***** +-
98A7 7E 98                                                    DW      HSTOD
98A9 A5 8B 7B 89 DB 85 04 00                          PM:     DW      DOCOL ZLESS ZBRAN +PM10
98B1 C3 89                                                    DW      MINUS
98B3 F5 88                                            PM10:   DW      SEMIS
                                                      
98B5 83 44 2B AD                                      HDPM:   DB      ^3 "D+" ^'-'                            ; ***** D+-
98B9 A4 98                                                    DW      HPM
98BB A5 8B 7B 89 DB 85 04 00                          DPM:    DW      DOCOL ZLESS ZBRAN +DPM10
98C3 D7 89                                                    DW      DMINU
98C5 F5 88                                            DPM10:  DW      SEMIS
                                                      
98C7 83 41 42 D3                                      HABS:   DB      ^3 "AB" ^'S'                            ; ***** ABS
98CB B5 98                                                    DW      HDPM
98CD A5 8B 6B 8A A9 98 F5 88                          ABS:    DW      DOCOL DUP PM SEMIS
                                                      
98D5 84 44 41 42 D3                                   HDABS:  DB      ^4 "DAB" ^'S'                           ; ***** DABS
98DA C7 98                                                    DW      HABS
98DC A5 8B 6B 8A BB 98 F5 88                          DABS:   DW      DOCOL DUP DPM SEMIS
                                                      
98E4 83 4D 49 CE                                      HMIN:   DB      ^3 "MI" ^'N'                            ; ***** MIN
98E8 D5 98                                                    DW      HDABS
98EA A5 8B 22 8A 22 8A 31 8F DB 85 04 00              MIN:    DW      DOCOL OVER OVER GREAT ZBRAN +MIN10
98F6 53 8A                                                    DW      SWAP
98F8 3E 8A F5 88                                      MIN10:  DW      DROP SEMIS
                                                      
98FC 83 4D 41 D8                                      HMAX:   DB      ^3 "MA" ^'X'                            ; ***** MAX
9900 E4 98                                                    DW      HMIN
9902 A5 8B 22 8A 22 8A 1F 8F DB 85 04 00              MAX:    DW      DOCOL OVER OVER LESS ZBRAN +MAX10
990E 53 8A                                                    DW      SWAP
9910 3E 8A F5 88                                      MAX10:  DW      DROP SEMIS
                                                      
9914 82 4D AA                                         HMSTAR: DB      ^2 "M" ^'*'                             ; ****** M*
9917 FC 98                                                    DW      HMAX
9919 A5 8B 22 8A 22 8A 60 88 27 89 CD 98 53 8A CD 98  MSTAR:  DW      DOCOL OVER OVER XOR TOR ABS SWAP ABS
9929 EB 87 37 89 BB 98 F5 88                                  DW      USTAR FROMR DPM SEMIS
                                                      
9931 82 4D AF                                         HMSLAS: DB      ^2 "M" ^'/'                             ; ***** M/
9934 14 99                                                    DW      HMSTAR
9936 A5 8B 22 8A 27 89 27 89 DC 98 43 89 CD 98        MSLAS:  DW      DOCOL OVER TOR TOR DABS R ABS
9944 1F 88 37 89 43 89 60 88 A9 98 53 8A                      DW      USLAS FROMR R XOR PM SWAP
9950 37 89 A9 98 53 8A F5 88                                  DW      FROMR PM SWAP SEMIS
                                                      
9958 81 AA                                            HSTAR:  DB      ^1 ^'*'                                 ; ***** *
995A 31 99                                                    DW      HMSLAS
995C A5 8B 19 99 3E 8A F5 88                          STAR:   DW      DOCOL MSTAR DROP SEMIS
                                                      
9964 84 2F 4D 4F C4                                   HSLMOD: DB      ^4 "/MO" ^'D'                           ; ***** /MOD
9969 58 99                                                    DW      HSTAR
996B A5 8B 27 89 85 98 37 89 36 99 F5 88              SLMOD:  DW      DOCOL TOR STOD FROMR MSLAS SEMIS
                                                      
9977 81 AF                                            HSLAS:  DB      ^1 ^'/'                                 ; ***** /
9979 64 99                                                    DW      HSLMOD
997B A5 8B 6B 99 53 8A 3E 8A F5 88                    SLASH:  DW      DOCOL SLMOD SWAP DROP SEMIS
                                                      
9985 83 4D 4F C4                                      HMOD:   DB      ^3 "MO" ^'D'                            ; ***** MOD
9989 77 99                                                    DW      HSLAS
998B A5 8B 6B 99 3E 8A F5 88                          MOD:    DW      DOCOL SLMOD DROP SEMIS
                                                      
9993 85 2A 2F 4D 4F C4                                HSSMOD: DB      ^5 "*/MO" ^'D'                          ; ***** */MOD
9999 85 99                                                    DW      HMOD
999B A5 8B 27 89 19 99 37 89 36 99 F5 88              SSMOD:  DW      DOCOL TOR MSTAR FROMR MSLAS SEMIS
                                                      
99A7 82 2A AF                                         HSSLA:  DB      ^2 "*" ^'/'                             ; ***** */
99AA 93 99                                                    DW      HSSMOD
99AC A5 8B 9B 99 53 8A 3E 8A F5 88                    SSLA:   DW      DOCOL SSMOD SWAP DROP SEMIS
                                                      
99B6 85 4D 2F 4D 4F C4                                HMSMOD: DB      ^5 "M/MO" ^'D'                          ; ***** M/MOD
99BC 93 99                                                    DW      HSSMOD
99BE A5 8B 27 89 5A 8C 43 89 1F 88 37 89              MSMOD:  DW      DOCOL TOR ZERO R USLAS FROMR
99CA 53 8A 27 89 1F 88 37 89 F5 88                            DW      SWAP TOR USLAS FROMR SEMIS
                                                      
                                                      ; INCLUDE         diskio.asm
                                                      
                                                      ; ----------------------------------------------------------------------
                                                      ; DISK I/O
                                                      
99D4 83 52 2F D7                                      HRW:    DB      ^3 "R/" ^'W'                            ; ***** R/W
99D8 B6 99                                                    DW      HMSMOD
99DA A5 8B 27 89                                      RW:     DW      DOCOL TOR
99DE 97 85 20 00 6B 99 66 8E 29 8B                            DW      LIT 32 SLMOD ONEP TBANK
99E8 91 8C 5C 99 37 89 DB 85 04 00                            DW      BBUF STAR FROMR ZBRAN +RW10
99F2 53 8A                                                    DW      SWAP
99F4 91 8C BF 87 F5 88                                RW10:   DW      BBUF CMOVE SEMIS
                                                      
99FA 84 2B 42 55 C6                                   HPBUF:  DB      ^4 "+BU" ^'F'                           ; ***** +BUF
99FF D4 99                                                    DW      HRW
9A01 A5 8B 91 8C 97 85 04 00 9D 89 9D 89              PBUF:   DW      DOCOL BBUF LIT 4 PLUS PLUS
9A0D 6B 8A 58 8D 3C 8B 0D 8F DB 85 08 00                      DW      DUP LIMIT AT EQUAL ZBRAN +PBUF10
9A19 3E 8A 4C 8D 3C 8B                                        DW      DROP FIRST AT
9A1F 6B 8A 05 8E 3C 8B EB 8E F5 88                    PBUF10: DW      DUP PREV AT SUB SEMIS
                                                      
9A29 86 55 50 44 41 54 C5                             HUPDAT: DB      ^6 "UPDAT" ^'E'                         ; ***** UPDATE
9A30 FA 99                                                    DW      HPBUF
9A32 A5 8B 05 8E 3C 8B 3C 8B 97 85 00 80              UPDAT:  DW      DOCOL PREV AT AT LIT 0x8000
9A3E 4F 88 05 8E 3C 8B 68 8B F5 88                            DW      OR PREV AT STORE SEMIS
                                                      
9A48 8D 45 4D 50 54 59 2D 42 55 46 46 45 52 D3        HMTBUF: DB      ^13 "EMPTY-BUFFER" ^'S'                 ; ***** EMPTY-BUFFERS
9A56 29 9A                                                    DW      HUPDAT
9A58 A5 8B 4C 8D 3C 8B 58 8D 3C 8B                    MTBUF:  DW      DOCOL FIRST AT LIMIT AT
9A62 22 8A EB 8E 60 93 F5 88                                  DW      OVER SUB ERASE SEMIS
                                                      
9A6A 85 46 4C 55 53 C8                                HFLUSH: DB      ^5 "FLUS" ^'H'                          ; ***** FLUSH
9A70 48 9A                                                    DW      HMTBUF
9A72 A5 8B 58 8D 3C 8B 4C 8D 3C 8B 71 86              FLUSH:  DW      DOCOL LIMIT AT FIRST AT XDO
9A7E 83 86 3C 8B 7B 89 DB 85 14 00                    FLUS10: DW      I AT ZLESS ZBRAN +FLUS20
9A88 83 86 76 8E 83 86 3C 8B 97 85 FF 7F                      DW      I TWOP I AT LIT 0x7FFF
9A94 3F 88 5A 8C DA 99                                        DW      AND ZERO RW
9A9A 91 8C 97 85 04 00 9D 89 0F 86 DA FF              FLUS20: DW      BBUF LIT 4 PLUS XPLOO +FLUS10
9AA6 58 9A F5 88                                              DW      MTBUF SEMIS
                                                      
9AAA 86 42 55 46 46 45 D2                             HBUFFE: DB      ^6 "BUFFE" ^'R'                         ; ***** BUFFER
9AB1 6A 9A                                                    DW      HFLUSH
9AB3 A5 8B FA 8D 3C 8B 6B 8A 27 89                    BUFFE:  DW      DOCOL USE AT DUP TOR
9ABD 01 9A DB 85 FC FF                                BUFF10: DW      PBUF ZBRAN +BUFF10
9AC3 FA 8D 68 8B 43 89 3C 8B 7B 89 DB 85 14 00                DW      USE STORE R AT ZLESS ZBRAN +BUFF20
9AD1 43 89 76 8E 43 89 3C 8B 97 85 FF 7F                      DW      R TWOP R AT LIT 0x7FFF
9ADD 3F 88 5A 8C DA 99                                        DW      AND ZERO RW
9AE3 43 89 68 8B 43 89 05 8E 68 8B 37 89 76 8E F5 88  BUFF20: DW      R STORE R PREV STORE FROMR TWOP SEMIS
                                                      
9AF3 85 42 4C 4F 43 CB                                HBLOCK: DB      ^5 "BLOC" ^'K'                          ; ***** BLOCK
9AF9 AA 9A                                                    DW      HBUFFE
9AFB A5 8B 27 89 05 8E 3C 8B 6B 8A 3C 8B              BLOCK:  DW      DOCOL TOR PREV AT DUP AT
9B07 97 85 FF 7F 3F 88 43 89 EB 8E DB 85 36 00                DW      LIT 0x7FFF AND R SUB ZBRAN +BLOC30
9B15 01 9A 50 89 DB 85 14 00                          BLOC10: DW      PBUF ZEQU ZBRAN +BLOC20
9B1D 3E 8A 43 89 B3 9A 6B 8A 43 89                            DW      DROP R BUFFE DUP R
9B27 62 8C DA 99 6A 8C EB 8E                                  DW      ONE RW TWO SUB
9B2F 6B 8A 3C 8B 97 85 FF 7F 3F 88 43 89              BLOC20: DW      DUP AT LIT 0x7FFF AND R
9B3B EB 8E 50 89 DB 85 D4 FF                                  DW      SUB ZEQU ZBRAN +BLOC10
9B43 6B 8A 05 8E 68 8B                                        DW      DUP PREV STORE
9B49 37 89 3E 8A 76 8E F5 88                          BLOC30: DW      FROMR DROP TWOP SEMIS
                                                      
9B51 86 28 4C 49 4E 45 A9                             HPLINE: DB      ^6 "(LINE" ^')'                         ; ***** (LINE)
9B58 F3 9A                                                    DW      HBLOCK
9B5A A5 8B 27 89 85 8C 91 8C 9B 99 37 89 9D 8C        PLINE:  DW      DOCOL TOR CL BBUF SSMOD FROMR BSCR
9B68 5C 99 9D 89 FB 9A 9D 89 85 8C F5 88                      DW      STAR PLUS BLOCK PLUS CL SEMIS
                                                      
9B74 85 2E 4C 49 4E C5                                HDLINE: DB      ^5 ".LIN" ^'E'                          ; ***** .LINE
9B7A 51 9B                                                    DW      HPLINE
9B7C A5 8B 5A 9B F4 91 C6 91 F5 88                    DLINE:  DW      DOCOL PLINE DTRAI TYPE SEMIS
                                                      
9B86 87 4D 45 53 53 41 47 C5                          HMESS:  DB      ^7 "MESSAG" ^'E'                        ; ***** MESSAGE
9B8E 74 9B                                                    DW      HDLINE
9B90 A5 8B 1C 8D 3C 8B DB 85 1C 00                    MESS:   DW      DOCOL WARN AT ZBRAN +MESS20
9B9A 64 8F DB 85 12 00                                        DW      DDUP ZBRAN +MESS10
9BA0 91 8C 85 8C 7B 99 6B 99 97 85 04 00 9D 89 7C 9B          DW      BBUF CL SLASH SLMOD LIT 4 PLUS DLINE
9BB0 C9 85 0D 00                                      MESS10: DW      BRAN +MESS30
9BB4 27 92                                            MESS20: DW      PDOTQ
9BB6 06 4D 53 47 20 23 20                                     DB      6 "MSG" 32 '#' 32
9BBD 21 A1                                                    DW      DOT
9BBF F5 88                                            MESS30: DW      SEMIS
                                                      
9BC1 84 4C 4F 41 C4                                   HLOAD:  DB      ^4 "LOA" ^'D'                           ; ***** LOAD
9BC6 86 9B                                                    DW      HMESS
9BC8 A5 8B 62 8D 3C 8B 27 89 6B 8D 3C 8B 27 89 5A 8C  LOAD:   DW      DOCOL BLK AT TOR IN AT TOR ZERO IN
9BD8 6B 8D 68 8B 9D 8C 5C 99 62 8D 68 8B 93 96                DW      STORE BSCR STAR BLK STORE INTER
9BE6 37 89 6B 8D 68 8B 37 89 62 8D 68 8B F5 88                DW      FROMR IN STORE FROMR BLK STORE SEMIS
                                                      
9BF4 C3 2D 2D BE                                      HARROW: DB      ^^3 "--" ^'>'                           ; ***** -->
9BF8 C1 9B                                                    DW      HLOAD
9BFA A5 8B 99 90 5A 8C 6B 8D 68 8B 9D 8C 62 8D 3C 8B  ARROW:  DW      DOCOL QLOAD ZERO IN STORE BSCR BLK AT
9C0A 22 8A 8B 99 EB 8E 62 8D E3 8A                            DW      OVER MOD SUB BLK PSTOR
9C14 97 85 2E 00 7A 9D F5 88                                  DW      LIT '.' EMIT SEMIS
                                                      
                                                      ; INCLUDE         extras.asm
                                                      
                                                      ; ----------------------------------------------------------------------
                                                      ; EXTRAS (added by SlowCorners)
                                                      
9C1C 84 4E 4F 4F D0                                   HNOOP:  DB      ^4 "NOO" ^'P'                           ; ***** NOOP
9C21 F4 9B                                                    DW      HARROW
9C23 A5 8B                                            NOOP:   DW      DOCOL
9C25 F5 88                                            NOO10:  DW      SEMIS
                                                      
9C27 C5 41 53 43 49 C9                                HASCII: DB      ^^5 "ASCI" ^'I'                         ; ***** ASCII
9C2D 1C 9C                                                    DW      HNOOP
9C2F A5 8B 7B 8C AB 93 8A 8E 66 8E                    ASCII:  DW      DOCOL BL WORD HERE ONEP
9C39 53 8B B4 8D 3C 8B DB 85 04 00                            DW      CAT STATE AT ZBRAN +ASCI10
9C43 0A 96                                                    DW      LITER
9C45 F5 88                                            ASCI10: DW      SEMIS
                                                      
9C47 C1 DC                                            HBSLAS: DB      ^^1 ^'\'                                ; ***** \
9C49 27 9C                                                    DW      HASCII
9C4B A5 8B 62 8D 3C 8B DB 85 1C 00                    BSLAS:  DW      DOCOL BLK AT ZBRAN +BSLA10
9C55 6B 8D 3C 8B 6B 8A 85 8C 8B 99 85 8C 53 8A                DW      IN AT DUP CL MOD CL SWAP
9C63 EB 8E 9D 89 6B 8D 68 8B C9 85 06 00                      DW      SUB PLUS IN STORE BRAN +BSLA20
9C6F 62 8C AB 93                                      BSLA10: DW      ONE WORD
9C73 F5 88                                            BSLA20: DW      SEMIS
                                                      
9C75 84 54 41 53 CB                                   HTASK:  DB      ^4 "TAS" ^'K'                           ; ***** TASK
9C7A 47 9C                                                    DW      HBSLAS
9C7C A5 8B 56 91 5A 8C CA 8E                          TASK:   DW      DOCOL BUILD ZERO COMMA
9C84 97 85 23 9C CA 8E 5A 8C CA 8E 66 91                      DW      LIT NOOP COMMA ZERO COMMA DOES
9C90 F5 88                                            DOTAS:  DW      SEMIS
                                                      
9C92 84 52 55 4E D3                                   HRUNS:  DB      ^4 "RUN" ^'S'                           ; ***** RUNS
9C97 75 9C                                                    DW      HTASK
9C99 A5 8B C0 9E D4 8F 53 8A 76 8E 68 8B F5 88        RUNS:   DW      DOCOL TICK CFA SWAP TWOP STORE SEMIS
                                                      
                                                      ; To be added as primaries: STOP AFTER NOW
                                                      
9CA7 87 52 45 51 55 49 52 C5                          HRQUIR: DB      ^7 "REQUIR" ^'E'                        ; ***** REQUIRE
9CAF 92 9C                                                    DW      HRUNS
9CB1 A5 8B 9F 94 C9 85 08 00                          RQUIR:  DW      DOCOL DFIND BRAN +RQUI10
9CB9 9C 8A C9 85 08 00                                        DW      TDROP BRAN +RQUI20
9CBF 97 85 22 00 19 95                                RQUI10: DW      LIT 34 ERROR
9CC5 F5 88                                            RQUI20: DW      SEMIS
                                                      
9CC7 82 3E BC                                         HBOUND: DB      ^2 ">" ^'<'                             ; ***** ><
9CCA A7 9C                                                    DW      HRQUIR
9CCC A5 8B 27 89 02 99 37 89 EA 98 F5 88              BOUND:  DW      DOCOL TOR MAX FROMR MIN SEMIS
                                                      
9CD8 84 44 4F 45 D2                                   HDOER:  DB      ^4 "DOE" ^'R'                           ; ***** DOER
9CDD C7 9C                                                    DW      HBOUND
9CDF A5 8B 56 91 97 85 25 9C CA 8E 66 91              DOER:   DW      DOCOL BUILD LIT NOO10 COMMA DOES
9CEB 3C 8B 27 89 F5 88                                DODOR:  DW      AT TOR SEMIS
                                                      
9CF1 84 4D 41 4B C5                                   HMAKE:  DB      ^4 "MAK" ^'E'                           ; ***** MAKE
9CF6 D8 9C                                                    DW      HDOER
9CF8 A5 8B 9F 94 50 89 5A 8C 20 90 3E 8A 76 8E 9F 94  MAKE:   DW      DOCOL DFIND ZEQU ZERO QERR DROP TWOP DFIND
9D08 50 89 5A 8C 20 90 3E 8A B4 8D 3C 8B DB 85 0E 00          DW      ZEQU ZERO QERR DROP STATE AT ZBRAN +MAKE10
9D18 0A 96 0A 96 B3 90 68 8B C9 85 06 00                      DW      LITER LITER COMP STORE BRAN +MAKE20
9D24 53 8A 68 8B                                      MAKE10: DW      SWAP STORE
9D28 F5 88                                            MAKE20: DW      SEMIS
                                                      
9D2A 86 28 54 52 55 45 A9                             HPTRUE: DB      ^6 "(TRUE" ^')'                         ; ***** (TRUE)
9D31 F1 9C                                                    DW      HMAKE
9D33 A5 8B                                            PTRUE:  DW      DOCOL
9D35 52 8C F5 88                                      PTR10:  DW      MONE SEMIS
                                                      
9D39 84 54 52 55 C5                                   HTRUE:  DB      ^4 "TRU" ^'E'                           ; ***** TRUE
9D3E 2A 9D                                                    DW      HPTRUE
9D40 72 91 EB 9C 35 9D                                TRUE:   DW      DODOE DODOR PTR10
                                                      
9D46 85 46 41 4C 53 C5                                HFALSE: DB      ^5 "FALS" ^'E'                          ; ***** FALSE
9D4C 39 9D                                                    DW      HTRUE
9D4E ED 8B 00 00                                      FALSE:  DW      DOCON 0
                                                      
9D52 86 28 45 4D 49 54 A9                             HPEMIT: DB      ^6 "(EMIT" ^')'                         ; ***** (EMIT)
9D59 46 9D                                                    DW      HFALSE
9D5B A5 8B                                            PEMIT:  DW      DOCOL
9D5D 67 9D 62 8C 75 8D E3 8A F5 88                    PEM10:  DW      XEMIT ONE OUT PSTOR SEMIS
                                                              ;
9D67 69 9D                                            XEMIT:  DW      XEMIT0
9D69 38 73 80                                         XEMIT0: JPS     _POP1           ; Get character
9D6C 15 EC FE                                                 LDA     R1.0            ; Send char to terminal
9D6F 02                                                       OUT                     ; :
9D70 14 1F 85                                                 JPA     NEXT            ; Done
                                                      
9D73 84 45 4D 49 D4                                   HEMIT:  DB      ^4 "EMI" ^'T'                           ; ***** EMIT
9D78 52 9D                                                    DW      HPEMIT
9D7A 72 91 EB 9C 5D 9D                                EMIT:   DW      DODOE DODOR PEM10
                                                      
9D80 85 28 4B 45 59 A9                                HPKEY:  DB      ^5 "(KEY" ^')'                          ; ***** (KEY)
9D86 73 9D                                                    DW      HEMIT
9D88 A5 8B                                            PKEY:   DW      DOCOL
9D8A C7 9D DB 85 FC FF                                PKE10:  DW      PQTER ZBRAN +PKE10
9D90 94 9D F5 88                                              DW      XKEY SEMIS
                                                              ;
9D94 96 9D                                            XKEY:   DW      XKEY0
9D96 24 ED FE                                         XKEY0:  CLB     R1.1            ; Clear MSB of result
9D99 15 FA FE                                                 LDA     CHIN            ; Any character buffered?
9D9C 11 FF                                                    CPI     0xFF            ; :
9D9E 3A A2 9D                                                 BNE     XKEY10          ; YES: We use the buffered character
9DA1 0A                                                       INP                     ; NO: Read whatever is on the input port
9DA2 16 EC FE                                         XKEY10: STA     R1.0            ; YES: This is in any case the result
9DA5 0E FF                                                    LDI     0xFF            ; Mark input buffer as empty
9DA7 16 FA FE                                                 STA     CHIN            ; :
9DAA 14 0D 85                                                 JPA     PUSH            ; Done
                                                      
9DAD 83 4B 45 D9                                      HKEY:   DB      ^3 "KE" ^'Y'                            ; ***** KEY
9DB1 80 9D                                                    DW      HPKEY
9DB3 72 91 EB 9C 8A 9D                                KEY:    DW      DODOE DODOR PKE10
                                                      
9DB9 8B 28 3F 54 45 52 4D 49 4E 41 4C A9              HPQTER: DB      ^11 "(?TERMINAL" ^')'                    ; ***** (?TERMINAL)
9DC5 AD 9D                                                    DW      HKEY
9DC7 A5 8B                                            PQTER:  DW      DOCOL
9DC9 CD 9D F5 88                                      PQT10:  DW      XQTER SEMIS
                                                              ;
9DCD CF 9D                                            XQTER:  DW      XQTER0
9DCF 2C EC FE                                         XQTER0: CLW     R1              ; Default FALSE to return
9DD2 0A                                                       INP                     ; Get char from terminal
9DD3 11 FF                                                    CPI     0xFF            ; Did we get a character?
9DD5 3B DE 9D                                                 BEQ     QTER10          ; NO: Return FALSE
9DD8 16 FA FE                                                 STA     CHIN            ; YES: Put into buffer
9DDB 2F EC FE                                                 DEW     R1              ; Make default FALSE into TRUE
9DDE 14 0D 85                                         QTER10: JPA     PUSH            ; Push R1; NEXT
                                                      
9DE1 89 3F 54 45 52 4D 49 4E 41 CC                    HQTERM: DB      ^9 "?TERMINA" ^'L'                      ; ***** ?TERMINAL
9DEB B9 9D                                                    DW      HPQTER
9DED 72 91 EB 9C C9 9D                                QTERM:  DW      DODOE DODOR PQT10
                                                      
9DF3 82 43 D2                                         HCR:    DB      ^2 "C" ^'R'                             ; ***** CR
9DF6 E1 9D                                                    DW      HQTERM
9DF8 A5 8B D0 8C 66 8E 53 8B 64 8F DB 85 04 00        CR:     DW      DOCOL EOL ONEP CAT DDUP ZBRAN +CR10
9E06 7A 9D                                                    DW      EMIT
9E08 D0 8C 53 8B 64 8F DB 85 04 00                    CR10:   DW      EOL CAT DDUP ZBRAN +CR20
9E12 7A 9D                                                    DW      EMIT
9E14 F5 88                                            CR20:   DW      SEMIS
                                                      
9E16 87 57 49 4E 44 4F 57 D3                          HWIN:   DB      ^7 "WINDOW" ^'S'                        ; ***** WINDOWS
9E1E F3 9D                                                    DW      HCR
9E20 A5 8B 97 85 0A 0D D0 8C 68 8B                    WIN:    DW      DOCOL LIT 0x0D0A EOL STORE
9E2A 97 85 0D 00 DC 8C 68 8B                                  DW      LIT 0x0D ENTER STORE
9E32 97 85 7F 00 E6 8C 68 8B F5 88                            DW      LIT 0x7F DEL STORE SEMIS
                                                      
9E3C 84 55 4E 49 D8                                   HUNIX:  DB      ^4 "UNI" ^'X'                           ; ***** UNIX
9E41 16 9E                                                    DW      HWIN
9E43 A5 8B 97 85 0A 00 D0 8C 68 8B                    UNIX:   DW      DOCOL LIT 0x000A EOL STORE
9E4D 97 85 0A 00 DC 8C 68 8B                                  DW      LIT 0x0A ENTER STORE
9E55 97 85 08 00 E6 8C 68 8B F5 88                            DW      LIT 0x08 DEL STORE SEMIS
                                                      
9E5F 86 45 58 50 45 43 D4                             HEXPEC: DB      ^6 "EXPEC" ^'T'                         ; ***** EXPECT
9E66 3C 9E                                                    DW      HUNIX
9E68 72 91 EB 9C 77 92                                EXPEC:  DW      DODOE DODOR PEXP05
                                                      
9E6E 83 28 22 A9                                      HPQUOT: DB      ^3 '(' '"' ^')'                         ; ***** (")
9E72 5F 9E                                                    DW      HEXPEC
9E74 A5 8B 43 89 6B 8A 53 8B 66 8E                    PQUOT:  DW      DOCOL R DUP CAT ONEP
9E7E 37 89 9D 89 27 89 F5 88                                  DW      FROMR PLUS TOR SEMIS
                                                      
9E86 C1 A2                                            HQUOTE: DB      ^^1 ^'"'                                ; ***** "
9E88 6E 9E                                                    DW      HPQUOT
9E8A A5 8B 97 85 22 00 B4 8D 3C 8B DB 85 14 00        QUOTE:  DW      DOCOL LIT CH_DQUOTE STATE AT ZBRAN +QUOT10
9E98 B3 90 74 9E AB 93 8A 8E                                  DW      COMP PQUOT WORD HERE
9EA0 53 8B 66 8E AD 8E C9 85 12 00                            DW      CAT ONEP ALLOT BRAN +QUOT20
9EAA AB 93 8A 8E 98 93 22 8A 53 8B 66 8E BF 87 98 93  QUOT10: DW      WORD HERE PAD OVER CAT ONEP CMOVE PAD
9EBA F5 88                                            QUOT20: DW      SEMIS
                                                      
                                                      
                                                      ; INCLUDE         misc.asm
                                                      
                                                      ; ----------------------------------------------------------------------
                                                      ; MISCELLANEOUS HIGHER LEVEL
                                                      
9EBC C1 A7                                            HTICK:  DB      ^^1 ^39                                 ; ***** '
9EBE 86 9E                                                    DW      HQUOTE
9EC0 A5 8B 9F 94 50 89 5A 8C 20 90 3E 8A 0A 96 F5 88  TICK:   DW      DOCOL DFIND ZEQU ZERO QERR DROP LITER SEMIS
                                                      
9ED0 86 46 4F 52 47 45 D4                             HFORGE: DB      ^6 "FORGE" ^'T'                         ; ***** FORGET
9ED7 BC 9E                                                    DW      HTICK
9ED9 A5 8B A8 8D 3C 8B 9A 8D 3C 8B EB 8E 97 85 18 00  FORGE:  DW      DOCOL CURR AT CONT AT SUB LIT 24
9EE9 20 90 C0 9E 6B 8A 28 8D 3C 8B 1F 8F 97 85 15 00          DW      QERR TICK DUP FENCE AT LESS LIT 21
9EF9 20 90 6B 8A E2 8F 31 8D 68 8B C4 8F 3C 8B 9A 8D          DW      QERR DUP NFA DP STORE LFA AT CONT
9F09 3C 8B 68 8B F5 88                                        DW      AT STORE SEMIS
                                                      
9F0F 84 42 41 43 CB                                   HBACK:  DB      ^4 "BAC" ^'K'                           ; ***** BACK
9F14 D0 9E                                                    DW      HFORGE
9F16 A5 8B 8A 8E EB 8E CA 8E F5 88                    BACK:   DW      DOCOL HERE SUB COMMA SEMIS
                                                      
9F20 C5 42 45 47 49 CE                                HBEGIN: DB      ^^5 "BEGI" ^'N'                         ; ***** BEGIN
9F26 0F 9F                                                    DW      HBACK
9F28 A5 8B 3A 90 8A 8E 62 8C F5 88                    BEGIN:  DW      DOCOL QCOMP HERE ONE SEMIS
                                                      
9F32 C5 45 4E 44 49 C6                                HENDIF: DB      ^^5 "ENDI" ^'F'                         ; ***** ENDIF
9F38 20 9F                                                    DW      HBEGIN
9F3A A5 8B 3A 90 6A 8C 69 90 8A 8E                    ENDIF:  DW      DOCOL QCOMP TWO QPAIR HERE
9F44 22 8A EB 8E 53 8A 68 8B F5 88                            DW      OVER SUB SWAP STORE SEMIS
                                                      
9F4E C4 54 48 45 CE                                   HTHEN:  DB      ^^4 "THE" ^'N'                          ; ***** THEN
9F53 32 9F                                                    DW      HENDIF
9F55 A5 8B 3A 9F F5 88                                THEN:   DW      DOCOL ENDIF SEMIS
                                                      
9F5B C2 44 CF                                         HDO:    DB      ^^2 "D" ^'O'                            ; ***** DO
9F5E 4E 9F                                                    DW      HTHEN
9F60 A5 8B B3 90 71 86 8A 8E 97 85 03 00 F5 88        DO:     DW      DOCOL COMP XDO HERE LIT 3 SEMIS
                                                      
9F6E C4 4C 4F 4F D0                                   HLOOP:  DB      ^^4 "LOO" ^'P'                          ; ***** LOOP
9F73 5B 9F                                                    DW      HDO
9F75 A5 8B 97 85 03 00 69 90 B3 90 5C 86 16 9F F5 88  LOOP:   DW      DOCOL LIT 3 QPAIR COMP XLOOP BACK SEMIS
                                                      
9F85 C5 2B 4C 4F 4F D0                                HPLOOP: DB      ^^5 "+LOO" ^'P'                         ; ***** +LOOP
9F8B 6E 9F                                                    DW      HLOOP
9F8D A5 8B 97 85 03 00 69 90 B3 90 0F 86 16 9F F5 88  PLOOP:  DW      DOCOL LIT 3 QPAIR COMP XPLOO BACK SEMIS
                                                      
9F9D C5 55 4E 54 49 CC                                HUNTIL: DB      ^^5 "UNTI" ^'L'                         ; ***** UNTIL
9FA3 85 9F                                                    DW      HPLOOP
9FA5 A5 8B 62 8C 69 90 B3 90 DB 85 16 9F F5 88        UNTIL:  DW      DOCOL ONE QPAIR COMP ZBRAN BACK SEMIS
                                                      
9FB3 C3 45 4E C4                                      HEND:   DB      ^^3 "EN" ^'D'                           ; ***** ENDI
9FB7 9D 9F                                                    DW      HUNTIL
9FB9 A5 8B A5 9F F5 88                                END:    DW      DOCOL UNTIL SEMIS
                                                      
9FBF C5 41 47 41 49 CE                                HAGAIN: DB      ^^5 "AGAI" ^'N'                         ; ***** AGAIN
9FC5 B3 9F                                                    DW      HEND
9FC7 A5 8B 62 8C 69 90 B3 90 C9 85 16 9F F5 88        AGAIN:  DW      DOCOL ONE QPAIR COMP BRAN BACK SEMIS
                                                      
9FD5 C6 52 45 50 45 41 D4                             HREPEA: DB      ^^6 "REPEA" ^'T'                        ; ***** REPEAT
9FDC BF 9F                                                    DW      HAGAIN
9FDE A5 8B 27 89 27 89 C7 9F 37 89 37 89              REPEA:  DW      DOCOL TOR TOR AGAIN FROMR FROMR
9FEA 6A 8C EB 8E 3A 9F F5 88                                  DW      TWO SUB ENDIF SEMIS
                                                      
9FF2 C2 49 C6                                         HIF:    DB      ^^2 "I" ^'F'                            ; ***** IF
9FF5 D5 9F                                                    DW      HREPEA
9FF7 A5 8B B3 90 DB 85 8A 8E 5A 8C CA 8E 6A 8C F5 88  IF:     DW      DOCOL COMP ZBRAN HERE ZERO COMMA TWO SEMIS
                                                      
A007 C4 45 4C 53 C5                                   HELSE:  DB      ^^4 "ELS" ^'E'                          ; ***** ELSE
A00C F2 9F                                                    DW      HIF
A00E A5 8B 6A 8C 69 90 B3 90 C9 85 8A 8E 6A 8C CA 8E  ELSE:   DW      DOCOL TWO QPAIR COMP BRAN HERE TWO COMMA
A01E 53 8A 6A 8C 3A 9F 6A 8C F5 88                            DW      SWAP TWO ENDIF TWO SEMIS
                                                      
A028 C5 57 48 49 4C C5                                HWHILE: DB      ^^5 "WHIL" ^'E'                         ; ***** WHILE
A02E 07 A0                                                    DW      HELSE
A030 A5 8B F7 9F 76 8E F5 88                          WHILE:  DW      DOCOL IF TWOP SEMIS
                                                      
A038 86 53 50 41 43 45 D3                             HSPACS: DB      ^6 "SPACE" ^'S'                         ; ***** SPACES
A03F 28 A0                                                    DW      HWHILE
A041 A5 8B 5A 8C 02 99 64 8F DB 85 0C 00              SPACS:  DW      DOCOL ZERO MAX DDUP ZBRAN +SPAC20
A04D 5A 8C 71 86                                              DW      ZERO XDO
A051 55 8F 5C 86 FC FF                                SPAC10: DW      SPACE XLOOP +SPAC10
A057 F5 88                                            SPAC20: DW      SEMIS
                                                      
A059 82 3C A3                                         HBDIGS: DB      ^2 "<" ^'#'                             ; ***** <#
A05C 38 A0                                                    DW      HSPACS
A05E A5 8B 98 93 F0 8D 68 8B F5 88                    BDIGS:  DW      DOCOL PAD HLD STORE SEMIS
                                                      
A068 82 23 BE                                         HEDIGS: DB      ^2 "#" ^'>'                             ; ***** #>
A06B 59 A0                                                    DW      HBDIGS
A06D A5 8B 3E 8A 3E 8A F0 8D 3C 8B                    EDIGS:  DW      DOCOL DROP DROP HLD AT
A077 98 93 22 8A EB 8E F5 88                                  DW      PAD OVER SUB SEMIS
                                                      
A07F 84 53 49 47 CE                                   HSIGN:  DB      ^4 "SIG" ^'N'                           ; ***** SIGN
A084 68 A0                                                    DW      HEDIGS
A086 A5 8B 3F 8F 7B 89 DB 85 08 00                    SIGN:   DW      DOCOL ROT ZLESS ZBRAN +SIGN10
A090 97 85 2D 00 80 93                                        DW      LIT '-' HOLD
A096 F5 88                                            SIGN10: DW      SEMIS
                                                      
A098 81 A3                                            HDIG:   DB      ^1 ^'#'                                 ; ***** #
A09A 7F A0                                                    DW      HSIGN
A09C A5 8B BF 8D 3C 8B BE 99 3F 8F                    DIG:    DW      DOCOL BASE AT MSMOD ROT
A0A6 97 85 09 00 22 8A 1F 8F DB 85 08 00                      DW      LIT 9 OVER LESS ZBRAN +DIG10
A0B2 97 85 07 00 9D 89                                        DW      LIT 7 PLUS
A0B8 97 85 30 00 9D 89 80 93 F5 88                    DIG10:  DW      LIT '0' PLUS HOLD SEMIS
                                                      
A0C2 82 23 D3                                         HDIGS:  DB      ^2 "#" ^'S'                             ; ***** #S
A0C5 98 A0                                                    DW      HDIG
A0C7 A5 8B                                            DIGS:   DW      DOCOL
A0C9 9C A0 22 8A 22 8A 4F 88 50 89 DB 85 F4 FF        DIGS10: DW      DIG OVER OVER OR ZEQU ZBRAN +DIGS10
A0D7 F5 88                                                    DW      SEMIS
                                                      
A0D9 83 44 2E D2                                      HDDOTR: DB      ^3 "D." ^'R'                            ; ***** D.R
A0DD C2 A0                                                    DW      HDIGS
A0DF A5 8B 27 89 53 8A 22 8A DC 98                    DDOTR:  DW      DOCOL TOR SWAP OVER DABS
A0E9 5E A0 C7 A0 86 A0 6D A0                                  DW      BDIGS DIGS SIGN EDIGS
A0F1 37 89 22 8A EB 8E 41 A0 C6 91 F5 88                      DW      FROMR OVER SUB SPACS TYPE SEMIS
                                                      
A0FD 82 2E D2                                         HDOTR:  DB      ^2 "." ^'R'                             ; ***** .R
A100 D9 A0                                                    DW      HDDOTR
A102 A5 8B 27 89 85 98 37 89 DF A0 F5 88              DOTR:   DW      DOCOL TOR STOD FROMR DDOTR SEMIS
                                                      
A10E 82 44 AE                                         HDDOT:  DB      ^2 "D" ^'.'                             ; ***** D.
A111 FD A0                                                    DW      HDOTR
A113 A5 8B 5A 8C DF A0 55 8F F5 88                    DDOT:   DW      DOCOL ZERO DDOTR SPACE SEMIS
                                                      
A11D 81 AE                                            HDOT:   DB      ^1 ^'.'                                 ; ***** .
A11F 0E A1                                                    DW      HDDOT
A121 A5 8B 85 98 13 A1 F5 88                          DOT:    DW      DOCOL STOD DDOT SEMIS
                                                      
A129 81 BF                                            HQUEST: DB      ^1 ^'?'                                 ; ***** ?
A12B 1D A1                                                    DW      HDOT
A12D A5 8B 3C 8B 21 A1 F5 88                          QUEST:  DW      DOCOL AT DOT SEMIS
                                                      
A135 82 55 AE                                         HUDOT:  DB      ^2 "U" ^'.'                             ; ***** U.
A138 29 A1                                                    DW      HQUEST
A13A A5 8B 5A 8C 13 A1 F5 88                          UDOT:   DW      DOCOL ZERO DDOT SEMIS
                                                      
                                                      ; ----------------------------------
                                                      ; UTILITY WORDS
                                                      
A142 84 4C 49 53 D4                                   HLIST:  DB      ^4 "LIS" ^'T'                           ; ***** LIST
A147 35 A1                                                    DW      HUDOT
A149 A5 8B 14 91 F8 9D 6B 8A 7F 8D 68 8B 27 92        LIST:   DW      DOCOL DEC CR DUP SCR STORE PDOTQ
A157 06 53 43 52 20 23 20                                     DB      6 "SCR" 32 "#" 32
A15E 21 A1 91 8C 85 8C 7B 99 5A 8C 71 86                      DW      DOT BBUF CL SLASH ZERO XDO
A16A F8 9D 83 86 72 8C 02 A1 55 8F                    LIST10: DW      CR I THREE DOTR SPACE
A174 83 86 7F 8D 3C 8B 7C 9B 5C 86 EC FF                      DW      I SCR AT DLINE XLOOP +LIST10
A180 F8 9D F5 88                                              DW      CR SEMIS
                                                      
A184 85 49 4E 44 45 D8                                HINDEX: DB      ^5 "INDE" ^'X'                          ; ***** INDEX
A18A 42 A1                                                    DW      HLIST
A18C A5 8B F8 9D 66 8E 53 8A 71 86                    INDEX:  DW      DOCOL CR ONEP SWAP XDO
A196 F8 9D 83 86 72 8C 02 A1 55 8F 5A 8C 83 86 7C 9B  INDE10: DW      CR I THREE DOTR SPACE ZERO I DLINE
A1A6 ED 9D DB 85 04 00                                        DW      QTERM ZBRAN +INDE20
A1AC 14 89                                                    DW      LEAVE
A1AE 5C 86 E6 FF                                      INDE20: DW      XLOOP +INDE10
A1B2 F5 88                                                    DW      SEMIS
                                                      
A1B4 85 56 4C 49 53 D4                                HVLIST: DB      ^5 "VLIS" ^'T'                          ; ***** VLIST
A1BA 84 A1                                                    DW      HINDEX
A1BC A5 8B 97 85 80 00 75 8D 68 8B 9A 8D 3C 8B 3C 8B  VLIST:  DW      DOCOL LIT 128 OUT STORE CONT AT AT
A1CC 75 8D 3C 8B 85 8C 97 85 0E 00 EB 8E              VLIS10: DW      OUT AT CL LIT 14 SUB
A1D8 31 8F DB 85 0A 00                                        DW      GREAT ZBRAN +VLIS20
A1DE F8 9D 5A 8C 75 8D 68 8B                                  DW      CR ZERO OUT STORE
A1E6 6B 8A 49 95 55 8F F8 8F C4 8F 3C 8B              VLIS20: DW      DUP IDDOT SPACE PFA LFA AT
A1F2 6B 8A 50 89 ED 9D 4F 88 DB 85 D0 FF                      DW      DUP ZEQU QTERM OR ZBRAN +VLIS10
A1FE 3E 8A F5 88                                              DW      DROP SEMIS
                                                      
A202 C5 3B 43 4F 44 C5                                HSCODE: DB      ^^5 ";COD" ^'E'                         ; ***** ;CODE
A208 B4 A1                                                    DW      HVLIST
A20A A5 8B 7C 90 B3 90 3E 91 C9 90 EC 90 F5 88        SCODE:  DW      DOCOL QCSP COMP PSCOD LBRAC SMUDG SEMIS
                                                      
A218 83 42 59 C5                                      HBYE:   DB      ^3 "BY" ^'E'                            ; ***** BYE
A21C 02 A2                                                    DW      HSCODE
A21E 20 A2                                            BYE:    DW      BYE0
A220 0E 00                                            BYE0:   LDI     0               ; Select EEPROM bank 0
A222 01                                                       BNK                     ; :
A223 14 00 00                                                 JPA     0               ; Re-start monitor
                                                      
A226 C5 46 4F 52 54 C8                                HFORTH: DB      ^^5 "FORT" ^'H'                         ; ***** FORTH
A22C 18 A2                                                    DW      HBYE
A22E 72 91 1A 97 81 A0 26 A2                          FORTH:  DW      DODOE DOVOC 0xA081 HFORTH
A236 00 00                                            XXVOC:  DW      0
                                                      
A238 00                                               XDP:    DB      0
                                                      
                                                      ; INCLUDE         uppermem.asm
                                                      
                                                      ; ----------------------------------------------------------------------
                                                      ; UPPER MEMORY AREA
                                                      
                                                              ORG     0xF5B0
                                                      
F5B0 00 00                                            XSP:    DW      0
F5B2 00                                               XTIB:   DB      0
                                                              DS      210             ; TIB:      84
F685 00 00 00 00                                      XRP:    DW      0 0             ; RSTACK:  128
                                                      
                                                      ; ------------------------------
                                                      ; USER AREA (NON-MOVABLE!)
                                                      
                                                      XUP:
F689 0A 00                                            _EOL:   DW      0x000A          ;  0: EOL       Default UNIX settings
F68B 0A 00                                            _ENTER: DW      0x0A            ;  2: ENTER     :
F68D 08 00                                            _DEL:   DW      0x08            ;  4: DEL       :
F68F 00 00                                            _S0:    DW      0               ;  6: S0
F691 00 00                                            _R0:    DW      0               ;  8: R0
F693 00 00                                            _TIB:   DW      0               ; 10: TIB
F695 00 00                                            _WIDTH: DW      0               ; 12: WIDTH
F697 00 00                                            _WARN:  DW      0               ; 14: WARNING
F699 00 00                                            _FENCE: DW      0               ; 16: FENCE
                                                      _DP:
F69B 00                                               _DP.0:  DB      0               ; 18: DP
F69C 00                                               _DP.1:  DB      0               ; :
F69D 00 00                                            _VOCL:  DW      0               ; 20: VOC-LINK
F69F 00 00                                            _FIRST: DW      0               ; 22: FIRST
F6A1 00 00                                            _LIMIT: DW      0               ; 24: LIMIT
F6A3 00 00                                                    DW      0               ; -- unused --
F6A5 00 00                                                    DW      0               ; -- unused --
F6A7 00 00                                            _BLK:   DW      0               ; 30: BLK
F6A9 00 00                                            _IN:    DW      0               ; 32: IN
F6AB 00 00                                            _OUT:   DW      0               ; 34: OUT
F6AD 00 00                                            _SCR:   DW      0               ; 36: SCR
F6AF 00 00                                            _OFFSE: DW      0               ; 38: OFFSET
F6B1 00 00                                            _CONT:  DW      0               ; 40: CONTEXT
F6B3 00 00                                            _CURR:  DW      0               ; 42: CURRENT
F6B5 00 00                                            _STATE: DW      0               ; 44: STATE
F6B7 00 00                                            _BASE:  DW      0               ; 46: BASE
F6B9 00 00                                            _DPL:   DW      0               ; 48: DPL
F6BB 00 00                                            _FLD:   DW      0               ; 50: FLD
F6BD 00 00                                            _CSP:   DW      0               ; 52: CSP
F6BF 00 00                                            _RNUM:  DW      0               ; 54: R#
F6C1 00 00                                            _HLD:   DW      0               ; 56: HLD
F6C3 00 00                                            _USE:   DW      0               ; 58: USE
F6C5 00 00                                            _PREV:  DW      0               ; 60: PREV
F6C7 00 00                                            _BANK:  DW      0               ; 62: BANK
F6C9 00                                               CLK0:   DB      0               ; 64: 32-bit fake clock tick counter
F6CA 00                                               CLK1:   DB      0               ; :
F6CB 00                                               CLK2:   DB      0               ; :
F6CC 00                                               CLK3:   DB      0               ; :
F6CD 00 00 00 00 00 00 00 00 00 00 00 00                      DW      0 0 0 0 0 0     ; 68: -- unused
                                                      
F6D9 00                                               DSKBF:  DB      0
                                                              DS      2055            ; 2 * 1028 bytes
FEE1 00                                               ENDBF:  DB      0
                                                      
                                                      ; ----------------------------------------------------------------------
                                                      ; THE VIRTUAL FORTH MACHINE REGISTERS
                                                      
                                                      IP:                             ; Instruction Pointer
FEE2 00                                               IP.0:   DB      0
FEE3 00                                               IP.1:   DB      0
                                                      
                                                      WA:                             ; Word Address Register
FEE4 00                                               WA.0:   DB      0
FEE5 00                                               WA.1:   DB      0
                                                      
                                                      SP:                             ; Data stack pointer
FEE6 00                                               SP.0:   DB      0
FEE7 00                                               SP.1:   DB      0
                                                      
                                                      RP:                             ; Return stack pointer
FEE8 00                                               RP.0:   DB      0
FEE9 00                                               RP.1:   DB      0
                                                      
                                                      UP:                             ; User area pointer
FEEA 00                                               UP.0:   DB      0
FEEB 00                                               UP.1:   DB      0
                                                      
                                                      R1:                             ; Working register R1
FEEC 00                                               R1.0:   DB      0
FEED 00                                               R1.1:   DB      0
                                                      R1H:
FEEE 00                                               R1.2:   DB      0
FEEF 00                                               R1.3:   DB      0
                                                      
                                                      R2:                             ; Working register R2
FEF0 00                                               R2.0:   DB      0
FEF1 00                                               R2.1:   DB      0
                                                      R2H:
FEF2 00                                               R2.2:   DB      0
FEF3 00                                               R2.3:   DB      0
                                                      
                                                      R3:                             ; Working register R3
FEF4 00                                               R3.0:   DB      0
FEF5 00                                               R3.1:   DB      0
                                                      R3H:
FEF6 00                                               R3.2:   DB      0
FEF7 00                                               R3.3:   DB      0
                                                      
FEF8 00                                               BC:     DB      0               ; "Hidden" registers
FEF9 00                                               TMP:    DB      0               ; (used by _AND8 _OR8 _XOR8)
FEFA 00                                               CHIN:   DB      0               ; Used by (?TERMINAL) and (KEY)
                                                      
                                                      ; LSTCLK is used by th4 FORTH multitasker in order to keep track
                                                      ; of "delta ticks" since last DISPATCH run
FEFB 00                                               LSTCLK: DB      0               ; Last clock tick count LSB
